
fersat_pdh.elf:     file format elf32-littlearm

Sections:
Idx Name          Size      VMA       LMA       File off  Algn
  0 .isr_vector   00000188  08000000  08000000  00010000  2**0
                  CONTENTS, ALLOC, LOAD, READONLY, DATA
  1 .text         00002404  08000188  08000188  00010188  2**2
                  CONTENTS, ALLOC, LOAD, READONLY, CODE
  2 .rodata       00000018  0800258c  0800258c  0001258c  2**2
                  CONTENTS, ALLOC, LOAD, READONLY, DATA
  3 .ARM.extab    00000000  080025a4  080025a4  00020004  2**0
                  CONTENTS
  4 .ARM          00000000  080025a4  080025a4  00020004  2**0
                  CONTENTS
  5 .preinit_array 00000000  080025a4  080025a4  00020004  2**0
                  CONTENTS, ALLOC, LOAD, DATA
  6 .init_array   00000004  080025a4  080025a4  000125a4  2**2
                  CONTENTS, ALLOC, LOAD, DATA
  7 .fini_array   00000004  080025a8  080025a8  000125a8  2**2
                  CONTENTS, ALLOC, LOAD, DATA
  8 .data         00000004  20000000  080025ac  00020000  2**2
                  CONTENTS, ALLOC, LOAD, DATA
  9 .bss          000000c8  20000004  080025b0  00020004  2**2
                  ALLOC
 10 ._user_heap_stack 00000604  200000cc  080025b0  000200cc  2**0
                  ALLOC
 11 .ARM.attributes 00000030  00000000  00000000  00020004  2**0
                  CONTENTS, READONLY
 12 .debug_info   00008bf1  00000000  00000000  00020034  2**0
                  CONTENTS, READONLY, DEBUGGING, OCTETS
 13 .debug_abbrev 000019a1  00000000  00000000  00028c25  2**0
                  CONTENTS, READONLY, DEBUGGING, OCTETS
 14 .debug_aranges 000008c0  00000000  00000000  0002a5c8  2**3
                  CONTENTS, READONLY, DEBUGGING, OCTETS
 15 .debug_ranges 000007e8  00000000  00000000  0002ae88  2**3
                  CONTENTS, READONLY, DEBUGGING, OCTETS
 16 .debug_macro  0001da6a  00000000  00000000  0002b670  2**0
                  CONTENTS, READONLY, DEBUGGING, OCTETS
 17 .debug_line   00006828  00000000  00000000  000490da  2**0
                  CONTENTS, READONLY, DEBUGGING, OCTETS
 18 .debug_str    000a3043  00000000  00000000  0004f902  2**0
                  CONTENTS, READONLY, DEBUGGING, OCTETS
 19 .comment      00000050  00000000  00000000  000f2945  2**0
                  CONTENTS, READONLY
 20 .debug_frame  00002388  00000000  00000000  000f2998  2**2
                  CONTENTS, READONLY, DEBUGGING, OCTETS

Disassembly of section .text:

08000188 <__do_global_dtors_aux>:
 8000188:	b510      	push	{r4, lr}
 800018a:	4c05      	ldr	r4, [pc, #20]	; (80001a0 <__do_global_dtors_aux+0x18>)
 800018c:	7823      	ldrb	r3, [r4, #0]
 800018e:	b933      	cbnz	r3, 800019e <__do_global_dtors_aux+0x16>
 8000190:	4b04      	ldr	r3, [pc, #16]	; (80001a4 <__do_global_dtors_aux+0x1c>)
 8000192:	b113      	cbz	r3, 800019a <__do_global_dtors_aux+0x12>
 8000194:	4804      	ldr	r0, [pc, #16]	; (80001a8 <__do_global_dtors_aux+0x20>)
 8000196:	f3af 8000 	nop.w
 800019a:	2301      	movs	r3, #1
 800019c:	7023      	strb	r3, [r4, #0]
 800019e:	bd10      	pop	{r4, pc}
 80001a0:	20000004 	.word	0x20000004
 80001a4:	00000000 	.word	0x00000000
 80001a8:	08002574 	.word	0x08002574

080001ac <frame_dummy>:
 80001ac:	b508      	push	{r3, lr}
 80001ae:	4b03      	ldr	r3, [pc, #12]	; (80001bc <frame_dummy+0x10>)
 80001b0:	b11b      	cbz	r3, 80001ba <frame_dummy+0xe>
 80001b2:	4903      	ldr	r1, [pc, #12]	; (80001c0 <frame_dummy+0x14>)
 80001b4:	4803      	ldr	r0, [pc, #12]	; (80001c4 <frame_dummy+0x18>)
 80001b6:	f3af 8000 	nop.w
 80001ba:	bd08      	pop	{r3, pc}
 80001bc:	00000000 	.word	0x00000000
 80001c0:	20000008 	.word	0x20000008
 80001c4:	08002574 	.word	0x08002574

080001c8 <__NVIC_DisableIRQ>:
  \details Disables a device specific interrupt in the NVIC interrupt controller.
  \param [in]      IRQn  Device specific interrupt number.
  \note    IRQn must not be negative.
 */
__STATIC_INLINE void __NVIC_DisableIRQ(IRQn_Type IRQn)
{
 80001c8:	b480      	push	{r7}
 80001ca:	b083      	sub	sp, #12
 80001cc:	af00      	add	r7, sp, #0
 80001ce:	4603      	mov	r3, r0
 80001d0:	71fb      	strb	r3, [r7, #7]
  if ((int32_t)(IRQn) >= 0)
 80001d2:	f997 3007 	ldrsb.w	r3, [r7, #7]
 80001d6:	2b00      	cmp	r3, #0
 80001d8:	db12      	blt.n	8000200 <__NVIC_DisableIRQ+0x38>
  {
    NVIC->ICER[(((uint32_t)IRQn) >> 5UL)] = (uint32_t)(1UL << (((uint32_t)IRQn) & 0x1FUL));
 80001da:	79fb      	ldrb	r3, [r7, #7]
 80001dc:	f003 021f 	and.w	r2, r3, #31
 80001e0:	490a      	ldr	r1, [pc, #40]	; (800020c <__NVIC_DisableIRQ+0x44>)
 80001e2:	f997 3007 	ldrsb.w	r3, [r7, #7]
 80001e6:	095b      	lsrs	r3, r3, #5
 80001e8:	2001      	movs	r0, #1
 80001ea:	fa00 f202 	lsl.w	r2, r0, r2
 80001ee:	3320      	adds	r3, #32
 80001f0:	f841 2023 	str.w	r2, [r1, r3, lsl #2]
  \details Acts as a special kind of Data Memory Barrier.
           It completes when all explicit memory accesses before this instruction complete.
 */
__STATIC_FORCEINLINE void __DSB(void)
{
  __ASM volatile ("dsb 0xF":::"memory");
 80001f4:	f3bf 8f4f 	dsb	sy
}
 80001f8:	bf00      	nop
  __ASM volatile ("isb 0xF":::"memory");
 80001fa:	f3bf 8f6f 	isb	sy
}
 80001fe:	bf00      	nop
    __DSB();
    __ISB();
  }
}
 8000200:	bf00      	nop
 8000202:	370c      	adds	r7, #12
 8000204:	46bd      	mov	sp, r7
 8000206:	f85d 7b04 	ldr.w	r7, [sp], #4
 800020a:	4770      	bx	lr
 800020c:	e000e100 	.word	0xe000e100

08000210 <LL_DMA_EnableChannel>:
  *         @arg @ref LL_DMA_CHANNEL_6
  *         @arg @ref LL_DMA_CHANNEL_7
  * @retval None
  */
__STATIC_INLINE void LL_DMA_EnableChannel(DMA_TypeDef *DMAx, uint32_t Channel)
{
 8000210:	b480      	push	{r7}
 8000212:	b085      	sub	sp, #20
 8000214:	af00      	add	r7, sp, #0
 8000216:	6078      	str	r0, [r7, #4]
 8000218:	6039      	str	r1, [r7, #0]
  uint32_t dma_base_addr = (uint32_t)DMAx;
 800021a:	687b      	ldr	r3, [r7, #4]
 800021c:	60fb      	str	r3, [r7, #12]
  SET_BIT(((DMA_Channel_TypeDef *)(dma_base_addr + CHANNEL_OFFSET_TAB[Channel]))->CCR, DMA_CCR_EN);
 800021e:	4a0c      	ldr	r2, [pc, #48]	; (8000250 <LL_DMA_EnableChannel+0x40>)
 8000220:	683b      	ldr	r3, [r7, #0]
 8000222:	4413      	add	r3, r2
 8000224:	781b      	ldrb	r3, [r3, #0]
 8000226:	461a      	mov	r2, r3
 8000228:	68fb      	ldr	r3, [r7, #12]
 800022a:	4413      	add	r3, r2
 800022c:	681b      	ldr	r3, [r3, #0]
 800022e:	4908      	ldr	r1, [pc, #32]	; (8000250 <LL_DMA_EnableChannel+0x40>)
 8000230:	683a      	ldr	r2, [r7, #0]
 8000232:	440a      	add	r2, r1
 8000234:	7812      	ldrb	r2, [r2, #0]
 8000236:	4611      	mov	r1, r2
 8000238:	68fa      	ldr	r2, [r7, #12]
 800023a:	440a      	add	r2, r1
 800023c:	f043 0301 	orr.w	r3, r3, #1
 8000240:	6013      	str	r3, [r2, #0]
}
 8000242:	bf00      	nop
 8000244:	3714      	adds	r7, #20
 8000246:	46bd      	mov	sp, r7
 8000248:	f85d 7b04 	ldr.w	r7, [sp], #4
 800024c:	4770      	bx	lr
 800024e:	bf00      	nop
 8000250:	0800258c 	.word	0x0800258c

08000254 <LL_DMA_SetDataLength>:
  *         @arg @ref LL_DMA_CHANNEL_7
  * @param  NbData Between Min_Data = 0 and Max_Data = 0x0000FFFF
  * @retval None
  */
__STATIC_INLINE void LL_DMA_SetDataLength(DMA_TypeDef *DMAx, uint32_t Channel, uint32_t NbData)
{
 8000254:	b480      	push	{r7}
 8000256:	b087      	sub	sp, #28
 8000258:	af00      	add	r7, sp, #0
 800025a:	60f8      	str	r0, [r7, #12]
 800025c:	60b9      	str	r1, [r7, #8]
 800025e:	607a      	str	r2, [r7, #4]
  uint32_t dma_base_addr = (uint32_t)DMAx;
 8000260:	68fb      	ldr	r3, [r7, #12]
 8000262:	617b      	str	r3, [r7, #20]
  MODIFY_REG(((DMA_Channel_TypeDef *)(dma_base_addr + CHANNEL_OFFSET_TAB[Channel]))->CNDTR,
 8000264:	4a0d      	ldr	r2, [pc, #52]	; (800029c <LL_DMA_SetDataLength+0x48>)
 8000266:	68bb      	ldr	r3, [r7, #8]
 8000268:	4413      	add	r3, r2
 800026a:	781b      	ldrb	r3, [r3, #0]
 800026c:	461a      	mov	r2, r3
 800026e:	697b      	ldr	r3, [r7, #20]
 8000270:	4413      	add	r3, r2
 8000272:	685b      	ldr	r3, [r3, #4]
 8000274:	0c1b      	lsrs	r3, r3, #16
 8000276:	041b      	lsls	r3, r3, #16
 8000278:	4908      	ldr	r1, [pc, #32]	; (800029c <LL_DMA_SetDataLength+0x48>)
 800027a:	68ba      	ldr	r2, [r7, #8]
 800027c:	440a      	add	r2, r1
 800027e:	7812      	ldrb	r2, [r2, #0]
 8000280:	4611      	mov	r1, r2
 8000282:	697a      	ldr	r2, [r7, #20]
 8000284:	440a      	add	r2, r1
 8000286:	4611      	mov	r1, r2
 8000288:	687a      	ldr	r2, [r7, #4]
 800028a:	4313      	orrs	r3, r2
 800028c:	604b      	str	r3, [r1, #4]
             DMA_CNDTR_NDT, NbData);
}
 800028e:	bf00      	nop
 8000290:	371c      	adds	r7, #28
 8000292:	46bd      	mov	sp, r7
 8000294:	f85d 7b04 	ldr.w	r7, [sp], #4
 8000298:	4770      	bx	lr
 800029a:	bf00      	nop
 800029c:	0800258c 	.word	0x0800258c

080002a0 <LL_DMA_SetMemoryAddress>:
  *         @arg @ref LL_DMA_CHANNEL_7
  * @param  MemoryAddress Between Min_Data = 0 and Max_Data = 0xFFFFFFFF
  * @retval None
  */
__STATIC_INLINE void LL_DMA_SetMemoryAddress(DMA_TypeDef *DMAx, uint32_t Channel, uint32_t MemoryAddress)
{
 80002a0:	b480      	push	{r7}
 80002a2:	b087      	sub	sp, #28
 80002a4:	af00      	add	r7, sp, #0
 80002a6:	60f8      	str	r0, [r7, #12]
 80002a8:	60b9      	str	r1, [r7, #8]
 80002aa:	607a      	str	r2, [r7, #4]
  uint32_t dma_base_addr = (uint32_t)DMAx;
 80002ac:	68fb      	ldr	r3, [r7, #12]
 80002ae:	617b      	str	r3, [r7, #20]
  WRITE_REG(((DMA_Channel_TypeDef *)(dma_base_addr + CHANNEL_OFFSET_TAB[Channel]))->CMAR, MemoryAddress);
 80002b0:	4a07      	ldr	r2, [pc, #28]	; (80002d0 <LL_DMA_SetMemoryAddress+0x30>)
 80002b2:	68bb      	ldr	r3, [r7, #8]
 80002b4:	4413      	add	r3, r2
 80002b6:	781b      	ldrb	r3, [r3, #0]
 80002b8:	461a      	mov	r2, r3
 80002ba:	697b      	ldr	r3, [r7, #20]
 80002bc:	4413      	add	r3, r2
 80002be:	461a      	mov	r2, r3
 80002c0:	687b      	ldr	r3, [r7, #4]
 80002c2:	60d3      	str	r3, [r2, #12]
}
 80002c4:	bf00      	nop
 80002c6:	371c      	adds	r7, #28
 80002c8:	46bd      	mov	sp, r7
 80002ca:	f85d 7b04 	ldr.w	r7, [sp], #4
 80002ce:	4770      	bx	lr
 80002d0:	0800258c 	.word	0x0800258c

080002d4 <LL_SPI_Enable>:
  * @rmtoll CR1          SPE           LL_SPI_Enable
  * @param  SPIx SPI Instance
  * @retval None
  */
__STATIC_INLINE void LL_SPI_Enable(SPI_TypeDef *SPIx)
{
 80002d4:	b480      	push	{r7}
 80002d6:	b083      	sub	sp, #12
 80002d8:	af00      	add	r7, sp, #0
 80002da:	6078      	str	r0, [r7, #4]
  SET_BIT(SPIx->CR1, SPI_CR1_SPE);
 80002dc:	687b      	ldr	r3, [r7, #4]
 80002de:	681b      	ldr	r3, [r3, #0]
 80002e0:	f043 0240 	orr.w	r2, r3, #64	; 0x40
 80002e4:	687b      	ldr	r3, [r7, #4]
 80002e6:	601a      	str	r2, [r3, #0]
}
 80002e8:	bf00      	nop
 80002ea:	370c      	adds	r7, #12
 80002ec:	46bd      	mov	sp, r7
 80002ee:	f85d 7b04 	ldr.w	r7, [sp], #4
 80002f2:	4770      	bx	lr

080002f4 <LL_SPI_EnableIT_RXNE>:
  * @rmtoll CR2          RXNEIE        LL_SPI_EnableIT_RXNE
  * @param  SPIx SPI Instance
  * @retval None
  */
__STATIC_INLINE void LL_SPI_EnableIT_RXNE(SPI_TypeDef *SPIx)
{
 80002f4:	b480      	push	{r7}
 80002f6:	b083      	sub	sp, #12
 80002f8:	af00      	add	r7, sp, #0
 80002fa:	6078      	str	r0, [r7, #4]
  SET_BIT(SPIx->CR2, SPI_CR2_RXNEIE);
 80002fc:	687b      	ldr	r3, [r7, #4]
 80002fe:	685b      	ldr	r3, [r3, #4]
 8000300:	f043 0240 	orr.w	r2, r3, #64	; 0x40
 8000304:	687b      	ldr	r3, [r7, #4]
 8000306:	605a      	str	r2, [r3, #4]
}
 8000308:	bf00      	nop
 800030a:	370c      	adds	r7, #12
 800030c:	46bd      	mov	sp, r7
 800030e:	f85d 7b04 	ldr.w	r7, [sp], #4
 8000312:	4770      	bx	lr

08000314 <LL_SPI_EnableIT_TXE>:
  * @rmtoll CR2          TXEIE         LL_SPI_EnableIT_TXE
  * @param  SPIx SPI Instance
  * @retval None
  */
__STATIC_INLINE void LL_SPI_EnableIT_TXE(SPI_TypeDef *SPIx)
{
 8000314:	b480      	push	{r7}
 8000316:	b083      	sub	sp, #12
 8000318:	af00      	add	r7, sp, #0
 800031a:	6078      	str	r0, [r7, #4]
  SET_BIT(SPIx->CR2, SPI_CR2_TXEIE);
 800031c:	687b      	ldr	r3, [r7, #4]
 800031e:	685b      	ldr	r3, [r3, #4]
 8000320:	f043 0280 	orr.w	r2, r3, #128	; 0x80
 8000324:	687b      	ldr	r3, [r7, #4]
 8000326:	605a      	str	r2, [r3, #4]
}
 8000328:	bf00      	nop
 800032a:	370c      	adds	r7, #12
 800032c:	46bd      	mov	sp, r7
 800032e:	f85d 7b04 	ldr.w	r7, [sp], #4
 8000332:	4770      	bx	lr

08000334 <LL_SPI_EnableDMAReq_RX>:
  * @rmtoll CR2          RXDMAEN       LL_SPI_EnableDMAReq_RX
  * @param  SPIx SPI Instance
  * @retval None
  */
__STATIC_INLINE void LL_SPI_EnableDMAReq_RX(SPI_TypeDef *SPIx)
{
 8000334:	b480      	push	{r7}
 8000336:	b083      	sub	sp, #12
 8000338:	af00      	add	r7, sp, #0
 800033a:	6078      	str	r0, [r7, #4]
  SET_BIT(SPIx->CR2, SPI_CR2_RXDMAEN);
 800033c:	687b      	ldr	r3, [r7, #4]
 800033e:	685b      	ldr	r3, [r3, #4]
 8000340:	f043 0201 	orr.w	r2, r3, #1
 8000344:	687b      	ldr	r3, [r7, #4]
 8000346:	605a      	str	r2, [r3, #4]
}
 8000348:	bf00      	nop
 800034a:	370c      	adds	r7, #12
 800034c:	46bd      	mov	sp, r7
 800034e:	f85d 7b04 	ldr.w	r7, [sp], #4
 8000352:	4770      	bx	lr

08000354 <LL_SPI_EnableDMAReq_TX>:
  * @rmtoll CR2          TXDMAEN       LL_SPI_EnableDMAReq_TX
  * @param  SPIx SPI Instance
  * @retval None
  */
__STATIC_INLINE void LL_SPI_EnableDMAReq_TX(SPI_TypeDef *SPIx)
{
 8000354:	b480      	push	{r7}
 8000356:	b083      	sub	sp, #12
 8000358:	af00      	add	r7, sp, #0
 800035a:	6078      	str	r0, [r7, #4]
  SET_BIT(SPIx->CR2, SPI_CR2_TXDMAEN);
 800035c:	687b      	ldr	r3, [r7, #4]
 800035e:	685b      	ldr	r3, [r3, #4]
 8000360:	f043 0202 	orr.w	r2, r3, #2
 8000364:	687b      	ldr	r3, [r7, #4]
 8000366:	605a      	str	r2, [r3, #4]
}
 8000368:	bf00      	nop
 800036a:	370c      	adds	r7, #12
 800036c:	46bd      	mov	sp, r7
 800036e:	f85d 7b04 	ldr.w	r7, [sp], #4
 8000372:	4770      	bx	lr

08000374 <LL_GPIO_SetOutputPin>:
  *         @arg @ref LL_GPIO_PIN_15
  *         @arg @ref LL_GPIO_PIN_ALL
  * @retval None
  */
__STATIC_INLINE void LL_GPIO_SetOutputPin(GPIO_TypeDef *GPIOx, uint32_t PinMask)
{
 8000374:	b480      	push	{r7}
 8000376:	b083      	sub	sp, #12
 8000378:	af00      	add	r7, sp, #0
 800037a:	6078      	str	r0, [r7, #4]
 800037c:	6039      	str	r1, [r7, #0]
  WRITE_REG(GPIOx->BSRR, PinMask);
 800037e:	687b      	ldr	r3, [r7, #4]
 8000380:	683a      	ldr	r2, [r7, #0]
 8000382:	619a      	str	r2, [r3, #24]
}
 8000384:	bf00      	nop
 8000386:	370c      	adds	r7, #12
 8000388:	46bd      	mov	sp, r7
 800038a:	f85d 7b04 	ldr.w	r7, [sp], #4
 800038e:	4770      	bx	lr

08000390 <LL_GPIO_ResetOutputPin>:
  *         @arg @ref LL_GPIO_PIN_15
  *         @arg @ref LL_GPIO_PIN_ALL
  * @retval None
  */
__STATIC_INLINE void LL_GPIO_ResetOutputPin(GPIO_TypeDef *GPIOx, uint32_t PinMask)
{
 8000390:	b480      	push	{r7}
 8000392:	b083      	sub	sp, #12
 8000394:	af00      	add	r7, sp, #0
 8000396:	6078      	str	r0, [r7, #4]
 8000398:	6039      	str	r1, [r7, #0]
  WRITE_REG(GPIOx->BRR, PinMask);
 800039a:	687b      	ldr	r3, [r7, #4]
 800039c:	683a      	ldr	r2, [r7, #0]
 800039e:	629a      	str	r2, [r3, #40]	; 0x28
}
 80003a0:	bf00      	nop
 80003a2:	370c      	adds	r7, #12
 80003a4:	46bd      	mov	sp, r7
 80003a6:	f85d 7b04 	ldr.w	r7, [sp], #4
 80003aa:	4770      	bx	lr

080003ac <ADC_first_read>:

volatile uint16_t adc_num_samples;
volatile uint8_t *adc_rx_buffer;
volatile uint16_t current_sample_count = 0;

void ADC_first_read(SPI_TypeDef *SPIx) {
 80003ac:	b580      	push	{r7, lr}
 80003ae:	b08c      	sub	sp, #48	; 0x30
 80003b0:	af00      	add	r7, sp, #0
 80003b2:	6078      	str	r0, [r7, #4]
	uint8_t rx_buffer[30];

	LL_GPIO_ResetOutputPin(ADC_CS_GPIOx, ADC_CS_PIN); // \CS low
 80003b4:	2102      	movs	r1, #2
 80003b6:	f04f 4090 	mov.w	r0, #1207959552	; 0x48000000
 80003ba:	f7ff ffe9 	bl	8000390 <LL_GPIO_ResetOutputPin>
	SPI_TransmitReceive(SPIx, 30, dummy_bytes, rx_buffer);
 80003be:	f107 030c 	add.w	r3, r7, #12
 80003c2:	4a15      	ldr	r2, [pc, #84]	; (8000418 <ADC_first_read+0x6c>)
 80003c4:	211e      	movs	r1, #30
 80003c6:	6878      	ldr	r0, [r7, #4]
 80003c8:	f001 f992 	bl	80016f0 <SPI_TransmitReceive>
	LL_GPIO_SetOutputPin(ADC_CS_GPIOx, ADC_CS_PIN); // \CS high
 80003cc:	2102      	movs	r1, #2
 80003ce:	f04f 4090 	mov.w	r0, #1207959552	; 0x48000000
 80003d2:	f7ff ffcf 	bl	8000374 <LL_GPIO_SetOutputPin>

	for(int i = 0; i < 100; i++); // TODO: write a delay function to replace this
 80003d6:	2300      	movs	r3, #0
 80003d8:	62fb      	str	r3, [r7, #44]	; 0x2c
 80003da:	e002      	b.n	80003e2 <ADC_first_read+0x36>
 80003dc:	6afb      	ldr	r3, [r7, #44]	; 0x2c
 80003de:	3301      	adds	r3, #1
 80003e0:	62fb      	str	r3, [r7, #44]	; 0x2c
 80003e2:	6afb      	ldr	r3, [r7, #44]	; 0x2c
 80003e4:	2b63      	cmp	r3, #99	; 0x63
 80003e6:	ddf9      	ble.n	80003dc <ADC_first_read+0x30>

	LL_GPIO_ResetOutputPin(ADC_CS_GPIOx, ADC_CS_PIN); // \CS low
 80003e8:	2102      	movs	r1, #2
 80003ea:	f04f 4090 	mov.w	r0, #1207959552	; 0x48000000
 80003ee:	f7ff ffcf 	bl	8000390 <LL_GPIO_ResetOutputPin>
	SPI_TransmitReceive(SPIx, 30, dummy_bytes, rx_buffer);
 80003f2:	f107 030c 	add.w	r3, r7, #12
 80003f6:	4a08      	ldr	r2, [pc, #32]	; (8000418 <ADC_first_read+0x6c>)
 80003f8:	211e      	movs	r1, #30
 80003fa:	6878      	ldr	r0, [r7, #4]
 80003fc:	f001 f978 	bl	80016f0 <SPI_TransmitReceive>
	LL_GPIO_SetOutputPin(ADC_CS_GPIOx, ADC_CS_PIN); // \CS high
 8000400:	2102      	movs	r1, #2
 8000402:	f04f 4090 	mov.w	r0, #1207959552	; 0x48000000
 8000406:	f7ff ffb5 	bl	8000374 <LL_GPIO_SetOutputPin>

	SPI_Disable(SPIx);
 800040a:	6878      	ldr	r0, [r7, #4]
 800040c:	f001 f9bf 	bl	800178e <SPI_Disable>
}
 8000410:	bf00      	nop
 8000412:	3730      	adds	r7, #48	; 0x30
 8000414:	46bd      	mov	sp, r7
 8000416:	bd80      	pop	{r7, pc}
 8000418:	2000002c 	.word	0x2000002c

0800041c <ADC_DRDY_interrupt_handler>:

void ADC_DRDY_interrupt_handler() {
 800041c:	b580      	push	{r7, lr}
 800041e:	af00      	add	r7, sp, #0
	if (current_sample_count < adc_num_samples) {
 8000420:	4b23      	ldr	r3, [pc, #140]	; (80004b0 <ADC_DRDY_interrupt_handler+0x94>)
 8000422:	881b      	ldrh	r3, [r3, #0]
 8000424:	b29a      	uxth	r2, r3
 8000426:	4b23      	ldr	r3, [pc, #140]	; (80004b4 <ADC_DRDY_interrupt_handler+0x98>)
 8000428:	881b      	ldrh	r3, [r3, #0]
 800042a:	b29b      	uxth	r3, r3
 800042c:	429a      	cmp	r2, r3
 800042e:	d23c      	bcs.n	80004aa <ADC_DRDY_interrupt_handler+0x8e>
		LL_DMA_SetDataLength(DMA2, LL_DMA_CHANNEL_1, BYTES_PER_SAMPLE);
 8000430:	221e      	movs	r2, #30
 8000432:	2100      	movs	r1, #0
 8000434:	4820      	ldr	r0, [pc, #128]	; (80004b8 <ADC_DRDY_interrupt_handler+0x9c>)
 8000436:	f7ff ff0d 	bl	8000254 <LL_DMA_SetDataLength>
		LL_DMA_SetDataLength(DMA2, LL_DMA_CHANNEL_2, BYTES_PER_SAMPLE);
 800043a:	221e      	movs	r2, #30
 800043c:	2101      	movs	r1, #1
 800043e:	481e      	ldr	r0, [pc, #120]	; (80004b8 <ADC_DRDY_interrupt_handler+0x9c>)
 8000440:	f7ff ff08 	bl	8000254 <LL_DMA_SetDataLength>
		LL_DMA_SetMemoryAddress(DMA2, LL_DMA_CHANNEL_1, (uint32_t) &adc_rx_buffer[current_sample_count++ * BYTES_PER_SAMPLE]);
 8000444:	4b1d      	ldr	r3, [pc, #116]	; (80004bc <ADC_DRDY_interrupt_handler+0xa0>)
 8000446:	681a      	ldr	r2, [r3, #0]
 8000448:	4b19      	ldr	r3, [pc, #100]	; (80004b0 <ADC_DRDY_interrupt_handler+0x94>)
 800044a:	881b      	ldrh	r3, [r3, #0]
 800044c:	b29b      	uxth	r3, r3
 800044e:	1c59      	adds	r1, r3, #1
 8000450:	b288      	uxth	r0, r1
 8000452:	4917      	ldr	r1, [pc, #92]	; (80004b0 <ADC_DRDY_interrupt_handler+0x94>)
 8000454:	8008      	strh	r0, [r1, #0]
 8000456:	4619      	mov	r1, r3
 8000458:	460b      	mov	r3, r1
 800045a:	011b      	lsls	r3, r3, #4
 800045c:	1a5b      	subs	r3, r3, r1
 800045e:	005b      	lsls	r3, r3, #1
 8000460:	4413      	add	r3, r2
 8000462:	461a      	mov	r2, r3
 8000464:	2100      	movs	r1, #0
 8000466:	4814      	ldr	r0, [pc, #80]	; (80004b8 <ADC_DRDY_interrupt_handler+0x9c>)
 8000468:	f7ff ff1a 	bl	80002a0 <LL_DMA_SetMemoryAddress>

		LL_SPI_EnableDMAReq_RX(SB_SPIx);
 800046c:	4814      	ldr	r0, [pc, #80]	; (80004c0 <ADC_DRDY_interrupt_handler+0xa4>)
 800046e:	f7ff ff61 	bl	8000334 <LL_SPI_EnableDMAReq_RX>

		LL_DMA_EnableChannel(DMA2, LL_DMA_CHANNEL_1);
 8000472:	2100      	movs	r1, #0
 8000474:	4810      	ldr	r0, [pc, #64]	; (80004b8 <ADC_DRDY_interrupt_handler+0x9c>)
 8000476:	f7ff fecb 	bl	8000210 <LL_DMA_EnableChannel>
		LL_DMA_EnableChannel(DMA2, LL_DMA_CHANNEL_2);
 800047a:	2101      	movs	r1, #1
 800047c:	480e      	ldr	r0, [pc, #56]	; (80004b8 <ADC_DRDY_interrupt_handler+0x9c>)
 800047e:	f7ff fec7 	bl	8000210 <LL_DMA_EnableChannel>

		LL_SPI_EnableDMAReq_TX(SB_SPIx);
 8000482:	480f      	ldr	r0, [pc, #60]	; (80004c0 <ADC_DRDY_interrupt_handler+0xa4>)
 8000484:	f7ff ff66 	bl	8000354 <LL_SPI_EnableDMAReq_TX>

		LL_SPI_EnableIT_RXNE(SB_SPIx);
 8000488:	480d      	ldr	r0, [pc, #52]	; (80004c0 <ADC_DRDY_interrupt_handler+0xa4>)
 800048a:	f7ff ff33 	bl	80002f4 <LL_SPI_EnableIT_RXNE>
		LL_SPI_EnableIT_TXE(SB_SPIx);
 800048e:	480c      	ldr	r0, [pc, #48]	; (80004c0 <ADC_DRDY_interrupt_handler+0xa4>)
 8000490:	f7ff ff40 	bl	8000314 <LL_SPI_EnableIT_TXE>

		NVIC_DisableIRQ(EXTI4_IRQn);
 8000494:	200a      	movs	r0, #10
 8000496:	f7ff fe97 	bl	80001c8 <__NVIC_DisableIRQ>

		LL_GPIO_ResetOutputPin(ADC_CS_GPIOx, ADC_CS_PIN);
 800049a:	2102      	movs	r1, #2
 800049c:	f04f 4090 	mov.w	r0, #1207959552	; 0x48000000
 80004a0:	f7ff ff76 	bl	8000390 <LL_GPIO_ResetOutputPin>
		LL_SPI_Enable(SB_SPIx);
 80004a4:	4806      	ldr	r0, [pc, #24]	; (80004c0 <ADC_DRDY_interrupt_handler+0xa4>)
 80004a6:	f7ff ff15 	bl	80002d4 <LL_SPI_Enable>
	}
}
 80004aa:	bf00      	nop
 80004ac:	bd80      	pop	{r7, pc}
 80004ae:	bf00      	nop
 80004b0:	20000028 	.word	0x20000028
 80004b4:	20000020 	.word	0x20000020
 80004b8:	40020400 	.word	0x40020400
 80004bc:	20000024 	.word	0x20000024
 80004c0:	40003c00 	.word	0x40003c00

080004c4 <ADC_set_RX_buffer>:

void ADC_set_RX_buffer(volatile uint8_t *rx_buffer) {
 80004c4:	b480      	push	{r7}
 80004c6:	b083      	sub	sp, #12
 80004c8:	af00      	add	r7, sp, #0
 80004ca:	6078      	str	r0, [r7, #4]
	adc_rx_buffer = rx_buffer;
 80004cc:	4a04      	ldr	r2, [pc, #16]	; (80004e0 <ADC_set_RX_buffer+0x1c>)
 80004ce:	687b      	ldr	r3, [r7, #4]
 80004d0:	6013      	str	r3, [r2, #0]
}
 80004d2:	bf00      	nop
 80004d4:	370c      	adds	r7, #12
 80004d6:	46bd      	mov	sp, r7
 80004d8:	f85d 7b04 	ldr.w	r7, [sp], #4
 80004dc:	4770      	bx	lr
 80004de:	bf00      	nop
 80004e0:	20000024 	.word	0x20000024

080004e4 <ADC_set_num_samples>:

void ADC_set_num_samples(uint16_t num_samples) {
 80004e4:	b480      	push	{r7}
 80004e6:	b083      	sub	sp, #12
 80004e8:	af00      	add	r7, sp, #0
 80004ea:	4603      	mov	r3, r0
 80004ec:	80fb      	strh	r3, [r7, #6]
	adc_num_samples = num_samples;
 80004ee:	4a04      	ldr	r2, [pc, #16]	; (8000500 <ADC_set_num_samples+0x1c>)
 80004f0:	88fb      	ldrh	r3, [r7, #6]
 80004f2:	8013      	strh	r3, [r2, #0]
}
 80004f4:	bf00      	nop
 80004f6:	370c      	adds	r7, #12
 80004f8:	46bd      	mov	sp, r7
 80004fa:	f85d 7b04 	ldr.w	r7, [sp], #4
 80004fe:	4770      	bx	lr
 8000500:	20000020 	.word	0x20000020

08000504 <__NVIC_GetPriorityGrouping>:
{
 8000504:	b480      	push	{r7}
 8000506:	af00      	add	r7, sp, #0
  return ((uint32_t)((SCB->AIRCR & SCB_AIRCR_PRIGROUP_Msk) >> SCB_AIRCR_PRIGROUP_Pos));
 8000508:	4b04      	ldr	r3, [pc, #16]	; (800051c <__NVIC_GetPriorityGrouping+0x18>)
 800050a:	68db      	ldr	r3, [r3, #12]
 800050c:	0a1b      	lsrs	r3, r3, #8
 800050e:	f003 0307 	and.w	r3, r3, #7
}
 8000512:	4618      	mov	r0, r3
 8000514:	46bd      	mov	sp, r7
 8000516:	f85d 7b04 	ldr.w	r7, [sp], #4
 800051a:	4770      	bx	lr
 800051c:	e000ed00 	.word	0xe000ed00

08000520 <__NVIC_EnableIRQ>:
{
 8000520:	b480      	push	{r7}
 8000522:	b083      	sub	sp, #12
 8000524:	af00      	add	r7, sp, #0
 8000526:	4603      	mov	r3, r0
 8000528:	71fb      	strb	r3, [r7, #7]
  if ((int32_t)(IRQn) >= 0)
 800052a:	f997 3007 	ldrsb.w	r3, [r7, #7]
 800052e:	2b00      	cmp	r3, #0
 8000530:	db0b      	blt.n	800054a <__NVIC_EnableIRQ+0x2a>
    NVIC->ISER[(((uint32_t)IRQn) >> 5UL)] = (uint32_t)(1UL << (((uint32_t)IRQn) & 0x1FUL));
 8000532:	79fb      	ldrb	r3, [r7, #7]
 8000534:	f003 021f 	and.w	r2, r3, #31
 8000538:	4907      	ldr	r1, [pc, #28]	; (8000558 <__NVIC_EnableIRQ+0x38>)
 800053a:	f997 3007 	ldrsb.w	r3, [r7, #7]
 800053e:	095b      	lsrs	r3, r3, #5
 8000540:	2001      	movs	r0, #1
 8000542:	fa00 f202 	lsl.w	r2, r0, r2
 8000546:	f841 2023 	str.w	r2, [r1, r3, lsl #2]
}
 800054a:	bf00      	nop
 800054c:	370c      	adds	r7, #12
 800054e:	46bd      	mov	sp, r7
 8000550:	f85d 7b04 	ldr.w	r7, [sp], #4
 8000554:	4770      	bx	lr
 8000556:	bf00      	nop
 8000558:	e000e100 	.word	0xe000e100

0800055c <__NVIC_SetPriority>:
  \param [in]      IRQn  Interrupt number.
  \param [in]  priority  Priority to set.
  \note    The priority cannot be set for every processor exception.
 */
__STATIC_INLINE void __NVIC_SetPriority(IRQn_Type IRQn, uint32_t priority)
{
 800055c:	b480      	push	{r7}
 800055e:	b083      	sub	sp, #12
 8000560:	af00      	add	r7, sp, #0
 8000562:	4603      	mov	r3, r0
 8000564:	6039      	str	r1, [r7, #0]
 8000566:	71fb      	strb	r3, [r7, #7]
  if ((int32_t)(IRQn) >= 0)
 8000568:	f997 3007 	ldrsb.w	r3, [r7, #7]
 800056c:	2b00      	cmp	r3, #0
 800056e:	db0a      	blt.n	8000586 <__NVIC_SetPriority+0x2a>
  {
    NVIC->IP[((uint32_t)IRQn)]               = (uint8_t)((priority << (8U - __NVIC_PRIO_BITS)) & (uint32_t)0xFFUL);
 8000570:	683b      	ldr	r3, [r7, #0]
 8000572:	b2da      	uxtb	r2, r3
 8000574:	490c      	ldr	r1, [pc, #48]	; (80005a8 <__NVIC_SetPriority+0x4c>)
 8000576:	f997 3007 	ldrsb.w	r3, [r7, #7]
 800057a:	0112      	lsls	r2, r2, #4
 800057c:	b2d2      	uxtb	r2, r2
 800057e:	440b      	add	r3, r1
 8000580:	f883 2300 	strb.w	r2, [r3, #768]	; 0x300
  }
  else
  {
    SCB->SHP[(((uint32_t)IRQn) & 0xFUL)-4UL] = (uint8_t)((priority << (8U - __NVIC_PRIO_BITS)) & (uint32_t)0xFFUL);
  }
}
 8000584:	e00a      	b.n	800059c <__NVIC_SetPriority+0x40>
    SCB->SHP[(((uint32_t)IRQn) & 0xFUL)-4UL] = (uint8_t)((priority << (8U - __NVIC_PRIO_BITS)) & (uint32_t)0xFFUL);
 8000586:	683b      	ldr	r3, [r7, #0]
 8000588:	b2da      	uxtb	r2, r3
 800058a:	4908      	ldr	r1, [pc, #32]	; (80005ac <__NVIC_SetPriority+0x50>)
 800058c:	79fb      	ldrb	r3, [r7, #7]
 800058e:	f003 030f 	and.w	r3, r3, #15
 8000592:	3b04      	subs	r3, #4
 8000594:	0112      	lsls	r2, r2, #4
 8000596:	b2d2      	uxtb	r2, r2
 8000598:	440b      	add	r3, r1
 800059a:	761a      	strb	r2, [r3, #24]
}
 800059c:	bf00      	nop
 800059e:	370c      	adds	r7, #12
 80005a0:	46bd      	mov	sp, r7
 80005a2:	f85d 7b04 	ldr.w	r7, [sp], #4
 80005a6:	4770      	bx	lr
 80005a8:	e000e100 	.word	0xe000e100
 80005ac:	e000ed00 	.word	0xe000ed00

080005b0 <NVIC_EncodePriority>:
  \param [in]   PreemptPriority  Preemptive priority value (starting from 0).
  \param [in]       SubPriority  Subpriority value (starting from 0).
  \return                        Encoded priority. Value can be used in the function \ref NVIC_SetPriority().
 */
__STATIC_INLINE uint32_t NVIC_EncodePriority (uint32_t PriorityGroup, uint32_t PreemptPriority, uint32_t SubPriority)
{
 80005b0:	b480      	push	{r7}
 80005b2:	b089      	sub	sp, #36	; 0x24
 80005b4:	af00      	add	r7, sp, #0
 80005b6:	60f8      	str	r0, [r7, #12]
 80005b8:	60b9      	str	r1, [r7, #8]
 80005ba:	607a      	str	r2, [r7, #4]
  uint32_t PriorityGroupTmp = (PriorityGroup & (uint32_t)0x07UL);   /* only values 0..7 are used          */
 80005bc:	68fb      	ldr	r3, [r7, #12]
 80005be:	f003 0307 	and.w	r3, r3, #7
 80005c2:	61fb      	str	r3, [r7, #28]
  uint32_t PreemptPriorityBits;
  uint32_t SubPriorityBits;

  PreemptPriorityBits = ((7UL - PriorityGroupTmp) > (uint32_t)(__NVIC_PRIO_BITS)) ? (uint32_t)(__NVIC_PRIO_BITS) : (uint32_t)(7UL - PriorityGroupTmp);
 80005c4:	69fb      	ldr	r3, [r7, #28]
 80005c6:	f1c3 0307 	rsb	r3, r3, #7
 80005ca:	2b04      	cmp	r3, #4
 80005cc:	bf28      	it	cs
 80005ce:	2304      	movcs	r3, #4
 80005d0:	61bb      	str	r3, [r7, #24]
  SubPriorityBits     = ((PriorityGroupTmp + (uint32_t)(__NVIC_PRIO_BITS)) < (uint32_t)7UL) ? (uint32_t)0UL : (uint32_t)((PriorityGroupTmp - 7UL) + (uint32_t)(__NVIC_PRIO_BITS));
 80005d2:	69fb      	ldr	r3, [r7, #28]
 80005d4:	3304      	adds	r3, #4
 80005d6:	2b06      	cmp	r3, #6
 80005d8:	d902      	bls.n	80005e0 <NVIC_EncodePriority+0x30>
 80005da:	69fb      	ldr	r3, [r7, #28]
 80005dc:	3b03      	subs	r3, #3
 80005de:	e000      	b.n	80005e2 <NVIC_EncodePriority+0x32>
 80005e0:	2300      	movs	r3, #0
 80005e2:	617b      	str	r3, [r7, #20]

  return (
           ((PreemptPriority & (uint32_t)((1UL << (PreemptPriorityBits)) - 1UL)) << SubPriorityBits) |
 80005e4:	f04f 32ff 	mov.w	r2, #4294967295	; 0xffffffff
 80005e8:	69bb      	ldr	r3, [r7, #24]
 80005ea:	fa02 f303 	lsl.w	r3, r2, r3
 80005ee:	43da      	mvns	r2, r3
 80005f0:	68bb      	ldr	r3, [r7, #8]
 80005f2:	401a      	ands	r2, r3
 80005f4:	697b      	ldr	r3, [r7, #20]
 80005f6:	409a      	lsls	r2, r3
           ((SubPriority     & (uint32_t)((1UL << (SubPriorityBits    )) - 1UL)))
 80005f8:	f04f 31ff 	mov.w	r1, #4294967295	; 0xffffffff
 80005fc:	697b      	ldr	r3, [r7, #20]
 80005fe:	fa01 f303 	lsl.w	r3, r1, r3
 8000602:	43d9      	mvns	r1, r3
 8000604:	687b      	ldr	r3, [r7, #4]
 8000606:	400b      	ands	r3, r1
           ((PreemptPriority & (uint32_t)((1UL << (PreemptPriorityBits)) - 1UL)) << SubPriorityBits) |
 8000608:	4313      	orrs	r3, r2
         );
}
 800060a:	4618      	mov	r0, r3
 800060c:	3724      	adds	r7, #36	; 0x24
 800060e:	46bd      	mov	sp, r7
 8000610:	f85d 7b04 	ldr.w	r7, [sp], #4
 8000614:	4770      	bx	lr
	...

08000618 <LL_DMA_DisableChannel>:
{
 8000618:	b480      	push	{r7}
 800061a:	b085      	sub	sp, #20
 800061c:	af00      	add	r7, sp, #0
 800061e:	6078      	str	r0, [r7, #4]
 8000620:	6039      	str	r1, [r7, #0]
  uint32_t dma_base_addr = (uint32_t)DMAx;
 8000622:	687b      	ldr	r3, [r7, #4]
 8000624:	60fb      	str	r3, [r7, #12]
  CLEAR_BIT(((DMA_Channel_TypeDef *)(dma_base_addr + CHANNEL_OFFSET_TAB[Channel]))->CCR, DMA_CCR_EN);
 8000626:	4a0c      	ldr	r2, [pc, #48]	; (8000658 <LL_DMA_DisableChannel+0x40>)
 8000628:	683b      	ldr	r3, [r7, #0]
 800062a:	4413      	add	r3, r2
 800062c:	781b      	ldrb	r3, [r3, #0]
 800062e:	461a      	mov	r2, r3
 8000630:	68fb      	ldr	r3, [r7, #12]
 8000632:	4413      	add	r3, r2
 8000634:	681b      	ldr	r3, [r3, #0]
 8000636:	4908      	ldr	r1, [pc, #32]	; (8000658 <LL_DMA_DisableChannel+0x40>)
 8000638:	683a      	ldr	r2, [r7, #0]
 800063a:	440a      	add	r2, r1
 800063c:	7812      	ldrb	r2, [r2, #0]
 800063e:	4611      	mov	r1, r2
 8000640:	68fa      	ldr	r2, [r7, #12]
 8000642:	440a      	add	r2, r1
 8000644:	f023 0301 	bic.w	r3, r3, #1
 8000648:	6013      	str	r3, [r2, #0]
}
 800064a:	bf00      	nop
 800064c:	3714      	adds	r7, #20
 800064e:	46bd      	mov	sp, r7
 8000650:	f85d 7b04 	ldr.w	r7, [sp], #4
 8000654:	4770      	bx	lr
 8000656:	bf00      	nop
 8000658:	08002594 	.word	0x08002594

0800065c <LL_DMA_SetMemoryAddress>:
{
 800065c:	b480      	push	{r7}
 800065e:	b087      	sub	sp, #28
 8000660:	af00      	add	r7, sp, #0
 8000662:	60f8      	str	r0, [r7, #12]
 8000664:	60b9      	str	r1, [r7, #8]
 8000666:	607a      	str	r2, [r7, #4]
  uint32_t dma_base_addr = (uint32_t)DMAx;
 8000668:	68fb      	ldr	r3, [r7, #12]
 800066a:	617b      	str	r3, [r7, #20]
  WRITE_REG(((DMA_Channel_TypeDef *)(dma_base_addr + CHANNEL_OFFSET_TAB[Channel]))->CMAR, MemoryAddress);
 800066c:	4a07      	ldr	r2, [pc, #28]	; (800068c <LL_DMA_SetMemoryAddress+0x30>)
 800066e:	68bb      	ldr	r3, [r7, #8]
 8000670:	4413      	add	r3, r2
 8000672:	781b      	ldrb	r3, [r3, #0]
 8000674:	461a      	mov	r2, r3
 8000676:	697b      	ldr	r3, [r7, #20]
 8000678:	4413      	add	r3, r2
 800067a:	461a      	mov	r2, r3
 800067c:	687b      	ldr	r3, [r7, #4]
 800067e:	60d3      	str	r3, [r2, #12]
}
 8000680:	bf00      	nop
 8000682:	371c      	adds	r7, #28
 8000684:	46bd      	mov	sp, r7
 8000686:	f85d 7b04 	ldr.w	r7, [sp], #4
 800068a:	4770      	bx	lr
 800068c:	08002594 	.word	0x08002594

08000690 <LL_DMA_SetPeriphAddress>:
  *         @arg @ref LL_DMA_CHANNEL_7
  * @param  PeriphAddress Between Min_Data = 0 and Max_Data = 0xFFFFFFFF
  * @retval None
  */
__STATIC_INLINE void LL_DMA_SetPeriphAddress(DMA_TypeDef *DMAx, uint32_t Channel, uint32_t PeriphAddress)
{
 8000690:	b480      	push	{r7}
 8000692:	b087      	sub	sp, #28
 8000694:	af00      	add	r7, sp, #0
 8000696:	60f8      	str	r0, [r7, #12]
 8000698:	60b9      	str	r1, [r7, #8]
 800069a:	607a      	str	r2, [r7, #4]
  uint32_t dma_base_addr = (uint32_t)DMAx;
 800069c:	68fb      	ldr	r3, [r7, #12]
 800069e:	617b      	str	r3, [r7, #20]
  WRITE_REG(((DMA_Channel_TypeDef *)(dma_base_addr + CHANNEL_OFFSET_TAB[Channel]))->CPAR, PeriphAddress);
 80006a0:	4a07      	ldr	r2, [pc, #28]	; (80006c0 <LL_DMA_SetPeriphAddress+0x30>)
 80006a2:	68bb      	ldr	r3, [r7, #8]
 80006a4:	4413      	add	r3, r2
 80006a6:	781b      	ldrb	r3, [r3, #0]
 80006a8:	461a      	mov	r2, r3
 80006aa:	697b      	ldr	r3, [r7, #20]
 80006ac:	4413      	add	r3, r2
 80006ae:	461a      	mov	r2, r3
 80006b0:	687b      	ldr	r3, [r7, #4]
 80006b2:	6093      	str	r3, [r2, #8]
}
 80006b4:	bf00      	nop
 80006b6:	371c      	adds	r7, #28
 80006b8:	46bd      	mov	sp, r7
 80006ba:	f85d 7b04 	ldr.w	r7, [sp], #4
 80006be:	4770      	bx	lr
 80006c0:	08002594 	.word	0x08002594

080006c4 <LL_DMA_ClearFlag_TC1>:
  * @rmtoll IFCR         CTCIF1        LL_DMA_ClearFlag_TC1
  * @param  DMAx DMAx Instance
  * @retval None
  */
__STATIC_INLINE void LL_DMA_ClearFlag_TC1(DMA_TypeDef *DMAx)
{
 80006c4:	b480      	push	{r7}
 80006c6:	b083      	sub	sp, #12
 80006c8:	af00      	add	r7, sp, #0
 80006ca:	6078      	str	r0, [r7, #4]
  WRITE_REG(DMAx->IFCR, DMA_IFCR_CTCIF1);
 80006cc:	687b      	ldr	r3, [r7, #4]
 80006ce:	2202      	movs	r2, #2
 80006d0:	605a      	str	r2, [r3, #4]
}
 80006d2:	bf00      	nop
 80006d4:	370c      	adds	r7, #12
 80006d6:	46bd      	mov	sp, r7
 80006d8:	f85d 7b04 	ldr.w	r7, [sp], #4
 80006dc:	4770      	bx	lr

080006de <LL_DMA_ClearFlag_TC2>:
  * @rmtoll IFCR         CTCIF2        LL_DMA_ClearFlag_TC2
  * @param  DMAx DMAx Instance
  * @retval None
  */
__STATIC_INLINE void LL_DMA_ClearFlag_TC2(DMA_TypeDef *DMAx)
{
 80006de:	b480      	push	{r7}
 80006e0:	b083      	sub	sp, #12
 80006e2:	af00      	add	r7, sp, #0
 80006e4:	6078      	str	r0, [r7, #4]
  WRITE_REG(DMAx->IFCR, DMA_IFCR_CTCIF2);
 80006e6:	687b      	ldr	r3, [r7, #4]
 80006e8:	2220      	movs	r2, #32
 80006ea:	605a      	str	r2, [r3, #4]
}
 80006ec:	bf00      	nop
 80006ee:	370c      	adds	r7, #12
 80006f0:	46bd      	mov	sp, r7
 80006f2:	f85d 7b04 	ldr.w	r7, [sp], #4
 80006f6:	4770      	bx	lr

080006f8 <LL_DMA_EnableIT_TC>:
  *         @arg @ref LL_DMA_CHANNEL_6
  *         @arg @ref LL_DMA_CHANNEL_7
  * @retval None
  */
__STATIC_INLINE void LL_DMA_EnableIT_TC(DMA_TypeDef *DMAx, uint32_t Channel)
{
 80006f8:	b480      	push	{r7}
 80006fa:	b085      	sub	sp, #20
 80006fc:	af00      	add	r7, sp, #0
 80006fe:	6078      	str	r0, [r7, #4]
 8000700:	6039      	str	r1, [r7, #0]
  uint32_t dma_base_addr = (uint32_t)DMAx;    
 8000702:	687b      	ldr	r3, [r7, #4]
 8000704:	60fb      	str	r3, [r7, #12]
  SET_BIT(((DMA_Channel_TypeDef *)(dma_base_addr + CHANNEL_OFFSET_TAB[Channel]))->CCR, DMA_CCR_TCIE);
 8000706:	4a0c      	ldr	r2, [pc, #48]	; (8000738 <LL_DMA_EnableIT_TC+0x40>)
 8000708:	683b      	ldr	r3, [r7, #0]
 800070a:	4413      	add	r3, r2
 800070c:	781b      	ldrb	r3, [r3, #0]
 800070e:	461a      	mov	r2, r3
 8000710:	68fb      	ldr	r3, [r7, #12]
 8000712:	4413      	add	r3, r2
 8000714:	681b      	ldr	r3, [r3, #0]
 8000716:	4908      	ldr	r1, [pc, #32]	; (8000738 <LL_DMA_EnableIT_TC+0x40>)
 8000718:	683a      	ldr	r2, [r7, #0]
 800071a:	440a      	add	r2, r1
 800071c:	7812      	ldrb	r2, [r2, #0]
 800071e:	4611      	mov	r1, r2
 8000720:	68fa      	ldr	r2, [r7, #12]
 8000722:	440a      	add	r2, r1
 8000724:	f043 0302 	orr.w	r3, r3, #2
 8000728:	6013      	str	r3, [r2, #0]
}
 800072a:	bf00      	nop
 800072c:	3714      	adds	r7, #20
 800072e:	46bd      	mov	sp, r7
 8000730:	f85d 7b04 	ldr.w	r7, [sp], #4
 8000734:	4770      	bx	lr
 8000736:	bf00      	nop
 8000738:	08002594 	.word	0x08002594

0800073c <LL_AHB1_GRP1_EnableClock>:
  *
  *         (*) value not defined in all devices.
  * @retval None
*/
__STATIC_INLINE void LL_AHB1_GRP1_EnableClock(uint32_t Periphs)
{
 800073c:	b480      	push	{r7}
 800073e:	b085      	sub	sp, #20
 8000740:	af00      	add	r7, sp, #0
 8000742:	6078      	str	r0, [r7, #4]
  __IO uint32_t tmpreg;
  SET_BIT(RCC->AHB1ENR, Periphs);
 8000744:	4b08      	ldr	r3, [pc, #32]	; (8000768 <LL_AHB1_GRP1_EnableClock+0x2c>)
 8000746:	6c9a      	ldr	r2, [r3, #72]	; 0x48
 8000748:	4907      	ldr	r1, [pc, #28]	; (8000768 <LL_AHB1_GRP1_EnableClock+0x2c>)
 800074a:	687b      	ldr	r3, [r7, #4]
 800074c:	4313      	orrs	r3, r2
 800074e:	648b      	str	r3, [r1, #72]	; 0x48
  /* Delay after an RCC peripheral clock enabling */
  tmpreg = READ_BIT(RCC->AHB1ENR, Periphs);
 8000750:	4b05      	ldr	r3, [pc, #20]	; (8000768 <LL_AHB1_GRP1_EnableClock+0x2c>)
 8000752:	6c9a      	ldr	r2, [r3, #72]	; 0x48
 8000754:	687b      	ldr	r3, [r7, #4]
 8000756:	4013      	ands	r3, r2
 8000758:	60fb      	str	r3, [r7, #12]
  (void)tmpreg;
 800075a:	68fb      	ldr	r3, [r7, #12]
}
 800075c:	bf00      	nop
 800075e:	3714      	adds	r7, #20
 8000760:	46bd      	mov	sp, r7
 8000762:	f85d 7b04 	ldr.w	r7, [sp], #4
 8000766:	4770      	bx	lr
 8000768:	40021000 	.word	0x40021000

0800076c <LL_SPI_DisableDMAReq_RX>:
{
 800076c:	b480      	push	{r7}
 800076e:	b083      	sub	sp, #12
 8000770:	af00      	add	r7, sp, #0
 8000772:	6078      	str	r0, [r7, #4]
  CLEAR_BIT(SPIx->CR2, SPI_CR2_RXDMAEN);
 8000774:	687b      	ldr	r3, [r7, #4]
 8000776:	685b      	ldr	r3, [r3, #4]
 8000778:	f023 0201 	bic.w	r2, r3, #1
 800077c:	687b      	ldr	r3, [r7, #4]
 800077e:	605a      	str	r2, [r3, #4]
}
 8000780:	bf00      	nop
 8000782:	370c      	adds	r7, #12
 8000784:	46bd      	mov	sp, r7
 8000786:	f85d 7b04 	ldr.w	r7, [sp], #4
 800078a:	4770      	bx	lr

0800078c <LL_SPI_DisableDMAReq_TX>:
  * @rmtoll CR2          TXDMAEN       LL_SPI_DisableDMAReq_TX
  * @param  SPIx SPI Instance
  * @retval None
  */
__STATIC_INLINE void LL_SPI_DisableDMAReq_TX(SPI_TypeDef *SPIx)
{
 800078c:	b480      	push	{r7}
 800078e:	b083      	sub	sp, #12
 8000790:	af00      	add	r7, sp, #0
 8000792:	6078      	str	r0, [r7, #4]
  CLEAR_BIT(SPIx->CR2, SPI_CR2_TXDMAEN);
 8000794:	687b      	ldr	r3, [r7, #4]
 8000796:	685b      	ldr	r3, [r3, #4]
 8000798:	f023 0202 	bic.w	r2, r3, #2
 800079c:	687b      	ldr	r3, [r7, #4]
 800079e:	605a      	str	r2, [r3, #4]
}
 80007a0:	bf00      	nop
 80007a2:	370c      	adds	r7, #12
 80007a4:	46bd      	mov	sp, r7
 80007a6:	f85d 7b04 	ldr.w	r7, [sp], #4
 80007aa:	4770      	bx	lr

080007ac <LL_SPI_DMA_GetRegAddr>:
  * @rmtoll DR           DR            LL_SPI_DMA_GetRegAddr
  * @param  SPIx SPI Instance
  * @retval Address of data register
  */
__STATIC_INLINE uint32_t LL_SPI_DMA_GetRegAddr(SPI_TypeDef *SPIx)
{
 80007ac:	b480      	push	{r7}
 80007ae:	b083      	sub	sp, #12
 80007b0:	af00      	add	r7, sp, #0
 80007b2:	6078      	str	r0, [r7, #4]
  return (uint32_t) &(SPIx->DR);
 80007b4:	687b      	ldr	r3, [r7, #4]
 80007b6:	330c      	adds	r3, #12
}
 80007b8:	4618      	mov	r0, r3
 80007ba:	370c      	adds	r7, #12
 80007bc:	46bd      	mov	sp, r7
 80007be:	f85d 7b04 	ldr.w	r7, [sp], #4
 80007c2:	4770      	bx	lr

080007c4 <LL_GPIO_SetOutputPin>:
{
 80007c4:	b480      	push	{r7}
 80007c6:	b083      	sub	sp, #12
 80007c8:	af00      	add	r7, sp, #0
 80007ca:	6078      	str	r0, [r7, #4]
 80007cc:	6039      	str	r1, [r7, #0]
  WRITE_REG(GPIOx->BSRR, PinMask);
 80007ce:	687b      	ldr	r3, [r7, #4]
 80007d0:	683a      	ldr	r2, [r7, #0]
 80007d2:	619a      	str	r2, [r3, #24]
}
 80007d4:	bf00      	nop
 80007d6:	370c      	adds	r7, #12
 80007d8:	46bd      	mov	sp, r7
 80007da:	f85d 7b04 	ldr.w	r7, [sp], #4
 80007de:	4770      	bx	lr

080007e0 <MX_DMA_Init>:

/**
  * Enable DMA controller clock
  */
void MX_DMA_Init(void)
{
 80007e0:	b580      	push	{r7, lr}
 80007e2:	af00      	add	r7, sp, #0

  /* Init with LL driver */
  /* DMA controller clock enable */
  LL_AHB1_GRP1_EnableClock(LL_AHB1_GRP1_PERIPH_DMA2);
 80007e4:	2002      	movs	r0, #2
 80007e6:	f7ff ffa9 	bl	800073c <LL_AHB1_GRP1_EnableClock>

  /* DMA interrupt init */
  /* DMA2_Channel1_IRQn interrupt configuration */
  NVIC_SetPriority(DMA2_Channel1_IRQn, NVIC_EncodePriority(NVIC_GetPriorityGrouping(),0, 0));
 80007ea:	f7ff fe8b 	bl	8000504 <__NVIC_GetPriorityGrouping>
 80007ee:	4603      	mov	r3, r0
 80007f0:	2200      	movs	r2, #0
 80007f2:	2100      	movs	r1, #0
 80007f4:	4618      	mov	r0, r3
 80007f6:	f7ff fedb 	bl	80005b0 <NVIC_EncodePriority>
 80007fa:	4603      	mov	r3, r0
 80007fc:	4619      	mov	r1, r3
 80007fe:	2038      	movs	r0, #56	; 0x38
 8000800:	f7ff feac 	bl	800055c <__NVIC_SetPriority>
  NVIC_EnableIRQ(DMA2_Channel1_IRQn);
 8000804:	2038      	movs	r0, #56	; 0x38
 8000806:	f7ff fe8b 	bl	8000520 <__NVIC_EnableIRQ>
  /* DMA2_Channel2_IRQn interrupt configuration */
  NVIC_SetPriority(DMA2_Channel2_IRQn, NVIC_EncodePriority(NVIC_GetPriorityGrouping(),0, 0));
 800080a:	f7ff fe7b 	bl	8000504 <__NVIC_GetPriorityGrouping>
 800080e:	4603      	mov	r3, r0
 8000810:	2200      	movs	r2, #0
 8000812:	2100      	movs	r1, #0
 8000814:	4618      	mov	r0, r3
 8000816:	f7ff fecb 	bl	80005b0 <NVIC_EncodePriority>
 800081a:	4603      	mov	r3, r0
 800081c:	4619      	mov	r1, r3
 800081e:	2039      	movs	r0, #57	; 0x39
 8000820:	f7ff fe9c 	bl	800055c <__NVIC_SetPriority>
  NVIC_EnableIRQ(DMA2_Channel2_IRQn);
 8000824:	2039      	movs	r0, #57	; 0x39
 8000826:	f7ff fe7b 	bl	8000520 <__NVIC_EnableIRQ>

}
 800082a:	bf00      	nop
 800082c:	bd80      	pop	{r7, pc}
	...

08000830 <ADC_SPI_DMA_init>:

/* USER CODE BEGIN 2 */
void ADC_SPI_DMA_init() {
 8000830:	b580      	push	{r7, lr}
 8000832:	af00      	add	r7, sp, #0
	LL_DMA_SetPeriphAddress(DMA2, LL_DMA_CHANNEL_1, LL_SPI_DMA_GetRegAddr(SB_SPIx));
 8000834:	4810      	ldr	r0, [pc, #64]	; (8000878 <ADC_SPI_DMA_init+0x48>)
 8000836:	f7ff ffb9 	bl	80007ac <LL_SPI_DMA_GetRegAddr>
 800083a:	4603      	mov	r3, r0
 800083c:	461a      	mov	r2, r3
 800083e:	2100      	movs	r1, #0
 8000840:	480e      	ldr	r0, [pc, #56]	; (800087c <ADC_SPI_DMA_init+0x4c>)
 8000842:	f7ff ff25 	bl	8000690 <LL_DMA_SetPeriphAddress>
	LL_DMA_SetPeriphAddress(DMA2, LL_DMA_CHANNEL_2, LL_SPI_DMA_GetRegAddr(SB_SPIx));
 8000846:	480c      	ldr	r0, [pc, #48]	; (8000878 <ADC_SPI_DMA_init+0x48>)
 8000848:	f7ff ffb0 	bl	80007ac <LL_SPI_DMA_GetRegAddr>
 800084c:	4603      	mov	r3, r0
 800084e:	461a      	mov	r2, r3
 8000850:	2101      	movs	r1, #1
 8000852:	480a      	ldr	r0, [pc, #40]	; (800087c <ADC_SPI_DMA_init+0x4c>)
 8000854:	f7ff ff1c 	bl	8000690 <LL_DMA_SetPeriphAddress>
	LL_DMA_SetMemoryAddress(DMA2, LL_DMA_CHANNEL_2, (uint32_t) dummy_bytes);
 8000858:	4b09      	ldr	r3, [pc, #36]	; (8000880 <ADC_SPI_DMA_init+0x50>)
 800085a:	461a      	mov	r2, r3
 800085c:	2101      	movs	r1, #1
 800085e:	4807      	ldr	r0, [pc, #28]	; (800087c <ADC_SPI_DMA_init+0x4c>)
 8000860:	f7ff fefc 	bl	800065c <LL_DMA_SetMemoryAddress>
	LL_DMA_EnableIT_TC(DMA2, LL_DMA_CHANNEL_1);
 8000864:	2100      	movs	r1, #0
 8000866:	4805      	ldr	r0, [pc, #20]	; (800087c <ADC_SPI_DMA_init+0x4c>)
 8000868:	f7ff ff46 	bl	80006f8 <LL_DMA_EnableIT_TC>
	LL_DMA_EnableIT_TC(DMA2, LL_DMA_CHANNEL_2);
 800086c:	2101      	movs	r1, #1
 800086e:	4803      	ldr	r0, [pc, #12]	; (800087c <ADC_SPI_DMA_init+0x4c>)
 8000870:	f7ff ff42 	bl	80006f8 <LL_DMA_EnableIT_TC>
}
 8000874:	bf00      	nop
 8000876:	bd80      	pop	{r7, pc}
 8000878:	40003c00 	.word	0x40003c00
 800087c:	40020400 	.word	0x40020400
 8000880:	2000002c 	.word	0x2000002c

08000884 <DMA_Transfer_Complete_RX_interrupt_handler>:

void DMA_Transfer_Complete_RX_interrupt_handler() {
 8000884:	b580      	push	{r7, lr}
 8000886:	af00      	add	r7, sp, #0
	LL_DMA_ClearFlag_TC1(DMA2);
 8000888:	480b      	ldr	r0, [pc, #44]	; (80008b8 <DMA_Transfer_Complete_RX_interrupt_handler+0x34>)
 800088a:	f7ff ff1b 	bl	80006c4 <LL_DMA_ClearFlag_TC1>
	LL_DMA_DisableChannel(DMA2, LL_DMA_CHANNEL_1);
 800088e:	2100      	movs	r1, #0
 8000890:	4809      	ldr	r0, [pc, #36]	; (80008b8 <DMA_Transfer_Complete_RX_interrupt_handler+0x34>)
 8000892:	f7ff fec1 	bl	8000618 <LL_DMA_DisableChannel>

	if (tc == 1) {
 8000896:	4b09      	ldr	r3, [pc, #36]	; (80008bc <DMA_Transfer_Complete_RX_interrupt_handler+0x38>)
 8000898:	781b      	ldrb	r3, [r3, #0]
 800089a:	b2db      	uxtb	r3, r3
 800089c:	2b01      	cmp	r3, #1
 800089e:	d106      	bne.n	80008ae <DMA_Transfer_Complete_RX_interrupt_handler+0x2a>
		DMA_Disable(SB_SPIx);
 80008a0:	4807      	ldr	r0, [pc, #28]	; (80008c0 <DMA_Transfer_Complete_RX_interrupt_handler+0x3c>)
 80008a2:	f000 f82f 	bl	8000904 <DMA_Disable>
		tc = 0;
 80008a6:	4b05      	ldr	r3, [pc, #20]	; (80008bc <DMA_Transfer_Complete_RX_interrupt_handler+0x38>)
 80008a8:	2200      	movs	r2, #0
 80008aa:	701a      	strb	r2, [r3, #0]
	} else {
		tc = 1;
	}
}
 80008ac:	e002      	b.n	80008b4 <DMA_Transfer_Complete_RX_interrupt_handler+0x30>
		tc = 1;
 80008ae:	4b03      	ldr	r3, [pc, #12]	; (80008bc <DMA_Transfer_Complete_RX_interrupt_handler+0x38>)
 80008b0:	2201      	movs	r2, #1
 80008b2:	701a      	strb	r2, [r3, #0]
}
 80008b4:	bf00      	nop
 80008b6:	bd80      	pop	{r7, pc}
 80008b8:	40020400 	.word	0x40020400
 80008bc:	2000002a 	.word	0x2000002a
 80008c0:	40003c00 	.word	0x40003c00

080008c4 <DMA_Transfer_Complete_TX_interrupt_handler>:

void DMA_Transfer_Complete_TX_interrupt_handler() {
 80008c4:	b580      	push	{r7, lr}
 80008c6:	af00      	add	r7, sp, #0
	LL_DMA_ClearFlag_TC2(DMA2);
 80008c8:	480b      	ldr	r0, [pc, #44]	; (80008f8 <DMA_Transfer_Complete_TX_interrupt_handler+0x34>)
 80008ca:	f7ff ff08 	bl	80006de <LL_DMA_ClearFlag_TC2>
	LL_DMA_DisableChannel(DMA2, LL_DMA_CHANNEL_2);
 80008ce:	2101      	movs	r1, #1
 80008d0:	4809      	ldr	r0, [pc, #36]	; (80008f8 <DMA_Transfer_Complete_TX_interrupt_handler+0x34>)
 80008d2:	f7ff fea1 	bl	8000618 <LL_DMA_DisableChannel>

	if (tc == 1) {
 80008d6:	4b09      	ldr	r3, [pc, #36]	; (80008fc <DMA_Transfer_Complete_TX_interrupt_handler+0x38>)
 80008d8:	781b      	ldrb	r3, [r3, #0]
 80008da:	b2db      	uxtb	r3, r3
 80008dc:	2b01      	cmp	r3, #1
 80008de:	d106      	bne.n	80008ee <DMA_Transfer_Complete_TX_interrupt_handler+0x2a>
		DMA_Disable(SB_SPIx);
 80008e0:	4807      	ldr	r0, [pc, #28]	; (8000900 <DMA_Transfer_Complete_TX_interrupt_handler+0x3c>)
 80008e2:	f000 f80f 	bl	8000904 <DMA_Disable>
		tc = 0;
 80008e6:	4b05      	ldr	r3, [pc, #20]	; (80008fc <DMA_Transfer_Complete_TX_interrupt_handler+0x38>)
 80008e8:	2200      	movs	r2, #0
 80008ea:	701a      	strb	r2, [r3, #0]
	} else {
		tc = 1;
	}
}
 80008ec:	e002      	b.n	80008f4 <DMA_Transfer_Complete_TX_interrupt_handler+0x30>
		tc = 1;
 80008ee:	4b03      	ldr	r3, [pc, #12]	; (80008fc <DMA_Transfer_Complete_TX_interrupt_handler+0x38>)
 80008f0:	2201      	movs	r2, #1
 80008f2:	701a      	strb	r2, [r3, #0]
}
 80008f4:	bf00      	nop
 80008f6:	bd80      	pop	{r7, pc}
 80008f8:	40020400 	.word	0x40020400
 80008fc:	2000002a 	.word	0x2000002a
 8000900:	40003c00 	.word	0x40003c00

08000904 <DMA_Disable>:


void DMA_Disable(SPI_TypeDef *SPIx) {
 8000904:	b580      	push	{r7, lr}
 8000906:	b082      	sub	sp, #8
 8000908:	af00      	add	r7, sp, #0
 800090a:	6078      	str	r0, [r7, #4]
	// SPI Disable procedure
	SPI_Disable(SPIx);
 800090c:	6878      	ldr	r0, [r7, #4]
 800090e:	f000 ff3e 	bl	800178e <SPI_Disable>

	LL_SPI_DisableDMAReq_RX(SPIx);
 8000912:	6878      	ldr	r0, [r7, #4]
 8000914:	f7ff ff2a 	bl	800076c <LL_SPI_DisableDMAReq_RX>
	LL_SPI_DisableDMAReq_TX(SPIx);
 8000918:	6878      	ldr	r0, [r7, #4]
 800091a:	f7ff ff37 	bl	800078c <LL_SPI_DisableDMAReq_TX>

	LL_GPIO_SetOutputPin(ADC_CS_GPIOx, ADC_CS_PIN);
 800091e:	2102      	movs	r1, #2
 8000920:	f04f 4090 	mov.w	r0, #1207959552	; 0x48000000
 8000924:	f7ff ff4e 	bl	80007c4 <LL_GPIO_SetOutputPin>
	NVIC_EnableIRQ(EXTI4_IRQn);
 8000928:	200a      	movs	r0, #10
 800092a:	f7ff fdf9 	bl	8000520 <__NVIC_EnableIRQ>
}
 800092e:	bf00      	nop
 8000930:	3708      	adds	r7, #8
 8000932:	46bd      	mov	sp, r7
 8000934:	bd80      	pop	{r7, pc}
	...

08000938 <__NVIC_GetPriorityGrouping>:
{
 8000938:	b480      	push	{r7}
 800093a:	af00      	add	r7, sp, #0
  return ((uint32_t)((SCB->AIRCR & SCB_AIRCR_PRIGROUP_Msk) >> SCB_AIRCR_PRIGROUP_Pos));
 800093c:	4b04      	ldr	r3, [pc, #16]	; (8000950 <__NVIC_GetPriorityGrouping+0x18>)
 800093e:	68db      	ldr	r3, [r3, #12]
 8000940:	0a1b      	lsrs	r3, r3, #8
 8000942:	f003 0307 	and.w	r3, r3, #7
}
 8000946:	4618      	mov	r0, r3
 8000948:	46bd      	mov	sp, r7
 800094a:	f85d 7b04 	ldr.w	r7, [sp], #4
 800094e:	4770      	bx	lr
 8000950:	e000ed00 	.word	0xe000ed00

08000954 <__NVIC_EnableIRQ>:
{
 8000954:	b480      	push	{r7}
 8000956:	b083      	sub	sp, #12
 8000958:	af00      	add	r7, sp, #0
 800095a:	4603      	mov	r3, r0
 800095c:	71fb      	strb	r3, [r7, #7]
  if ((int32_t)(IRQn) >= 0)
 800095e:	f997 3007 	ldrsb.w	r3, [r7, #7]
 8000962:	2b00      	cmp	r3, #0
 8000964:	db0b      	blt.n	800097e <__NVIC_EnableIRQ+0x2a>
    NVIC->ISER[(((uint32_t)IRQn) >> 5UL)] = (uint32_t)(1UL << (((uint32_t)IRQn) & 0x1FUL));
 8000966:	79fb      	ldrb	r3, [r7, #7]
 8000968:	f003 021f 	and.w	r2, r3, #31
 800096c:	4907      	ldr	r1, [pc, #28]	; (800098c <__NVIC_EnableIRQ+0x38>)
 800096e:	f997 3007 	ldrsb.w	r3, [r7, #7]
 8000972:	095b      	lsrs	r3, r3, #5
 8000974:	2001      	movs	r0, #1
 8000976:	fa00 f202 	lsl.w	r2, r0, r2
 800097a:	f841 2023 	str.w	r2, [r1, r3, lsl #2]
}
 800097e:	bf00      	nop
 8000980:	370c      	adds	r7, #12
 8000982:	46bd      	mov	sp, r7
 8000984:	f85d 7b04 	ldr.w	r7, [sp], #4
 8000988:	4770      	bx	lr
 800098a:	bf00      	nop
 800098c:	e000e100 	.word	0xe000e100

08000990 <__NVIC_SetPriority>:
{
 8000990:	b480      	push	{r7}
 8000992:	b083      	sub	sp, #12
 8000994:	af00      	add	r7, sp, #0
 8000996:	4603      	mov	r3, r0
 8000998:	6039      	str	r1, [r7, #0]
 800099a:	71fb      	strb	r3, [r7, #7]
  if ((int32_t)(IRQn) >= 0)
 800099c:	f997 3007 	ldrsb.w	r3, [r7, #7]
 80009a0:	2b00      	cmp	r3, #0
 80009a2:	db0a      	blt.n	80009ba <__NVIC_SetPriority+0x2a>
    NVIC->IP[((uint32_t)IRQn)]               = (uint8_t)((priority << (8U - __NVIC_PRIO_BITS)) & (uint32_t)0xFFUL);
 80009a4:	683b      	ldr	r3, [r7, #0]
 80009a6:	b2da      	uxtb	r2, r3
 80009a8:	490c      	ldr	r1, [pc, #48]	; (80009dc <__NVIC_SetPriority+0x4c>)
 80009aa:	f997 3007 	ldrsb.w	r3, [r7, #7]
 80009ae:	0112      	lsls	r2, r2, #4
 80009b0:	b2d2      	uxtb	r2, r2
 80009b2:	440b      	add	r3, r1
 80009b4:	f883 2300 	strb.w	r2, [r3, #768]	; 0x300
}
 80009b8:	e00a      	b.n	80009d0 <__NVIC_SetPriority+0x40>
    SCB->SHP[(((uint32_t)IRQn) & 0xFUL)-4UL] = (uint8_t)((priority << (8U - __NVIC_PRIO_BITS)) & (uint32_t)0xFFUL);
 80009ba:	683b      	ldr	r3, [r7, #0]
 80009bc:	b2da      	uxtb	r2, r3
 80009be:	4908      	ldr	r1, [pc, #32]	; (80009e0 <__NVIC_SetPriority+0x50>)
 80009c0:	79fb      	ldrb	r3, [r7, #7]
 80009c2:	f003 030f 	and.w	r3, r3, #15
 80009c6:	3b04      	subs	r3, #4
 80009c8:	0112      	lsls	r2, r2, #4
 80009ca:	b2d2      	uxtb	r2, r2
 80009cc:	440b      	add	r3, r1
 80009ce:	761a      	strb	r2, [r3, #24]
}
 80009d0:	bf00      	nop
 80009d2:	370c      	adds	r7, #12
 80009d4:	46bd      	mov	sp, r7
 80009d6:	f85d 7b04 	ldr.w	r7, [sp], #4
 80009da:	4770      	bx	lr
 80009dc:	e000e100 	.word	0xe000e100
 80009e0:	e000ed00 	.word	0xe000ed00

080009e4 <NVIC_EncodePriority>:
{
 80009e4:	b480      	push	{r7}
 80009e6:	b089      	sub	sp, #36	; 0x24
 80009e8:	af00      	add	r7, sp, #0
 80009ea:	60f8      	str	r0, [r7, #12]
 80009ec:	60b9      	str	r1, [r7, #8]
 80009ee:	607a      	str	r2, [r7, #4]
  uint32_t PriorityGroupTmp = (PriorityGroup & (uint32_t)0x07UL);   /* only values 0..7 are used          */
 80009f0:	68fb      	ldr	r3, [r7, #12]
 80009f2:	f003 0307 	and.w	r3, r3, #7
 80009f6:	61fb      	str	r3, [r7, #28]
  PreemptPriorityBits = ((7UL - PriorityGroupTmp) > (uint32_t)(__NVIC_PRIO_BITS)) ? (uint32_t)(__NVIC_PRIO_BITS) : (uint32_t)(7UL - PriorityGroupTmp);
 80009f8:	69fb      	ldr	r3, [r7, #28]
 80009fa:	f1c3 0307 	rsb	r3, r3, #7
 80009fe:	2b04      	cmp	r3, #4
 8000a00:	bf28      	it	cs
 8000a02:	2304      	movcs	r3, #4
 8000a04:	61bb      	str	r3, [r7, #24]
  SubPriorityBits     = ((PriorityGroupTmp + (uint32_t)(__NVIC_PRIO_BITS)) < (uint32_t)7UL) ? (uint32_t)0UL : (uint32_t)((PriorityGroupTmp - 7UL) + (uint32_t)(__NVIC_PRIO_BITS));
 8000a06:	69fb      	ldr	r3, [r7, #28]
 8000a08:	3304      	adds	r3, #4
 8000a0a:	2b06      	cmp	r3, #6
 8000a0c:	d902      	bls.n	8000a14 <NVIC_EncodePriority+0x30>
 8000a0e:	69fb      	ldr	r3, [r7, #28]
 8000a10:	3b03      	subs	r3, #3
 8000a12:	e000      	b.n	8000a16 <NVIC_EncodePriority+0x32>
 8000a14:	2300      	movs	r3, #0
 8000a16:	617b      	str	r3, [r7, #20]
           ((PreemptPriority & (uint32_t)((1UL << (PreemptPriorityBits)) - 1UL)) << SubPriorityBits) |
 8000a18:	f04f 32ff 	mov.w	r2, #4294967295	; 0xffffffff
 8000a1c:	69bb      	ldr	r3, [r7, #24]
 8000a1e:	fa02 f303 	lsl.w	r3, r2, r3
 8000a22:	43da      	mvns	r2, r3
 8000a24:	68bb      	ldr	r3, [r7, #8]
 8000a26:	401a      	ands	r2, r3
 8000a28:	697b      	ldr	r3, [r7, #20]
 8000a2a:	409a      	lsls	r2, r3
           ((SubPriority     & (uint32_t)((1UL << (SubPriorityBits    )) - 1UL)))
 8000a2c:	f04f 31ff 	mov.w	r1, #4294967295	; 0xffffffff
 8000a30:	697b      	ldr	r3, [r7, #20]
 8000a32:	fa01 f303 	lsl.w	r3, r1, r3
 8000a36:	43d9      	mvns	r1, r3
 8000a38:	687b      	ldr	r3, [r7, #4]
 8000a3a:	400b      	ands	r3, r1
           ((PreemptPriority & (uint32_t)((1UL << (PreemptPriorityBits)) - 1UL)) << SubPriorityBits) |
 8000a3c:	4313      	orrs	r3, r2
}
 8000a3e:	4618      	mov	r0, r3
 8000a40:	3724      	adds	r7, #36	; 0x24
 8000a42:	46bd      	mov	sp, r7
 8000a44:	f85d 7b04 	ldr.w	r7, [sp], #4
 8000a48:	4770      	bx	lr
	...

08000a4c <LL_AHB2_GRP1_EnableClock>:
  *
  *         (*) value not defined in all devices.
  * @retval None
*/
__STATIC_INLINE void LL_AHB2_GRP1_EnableClock(uint32_t Periphs)
{
 8000a4c:	b480      	push	{r7}
 8000a4e:	b085      	sub	sp, #20
 8000a50:	af00      	add	r7, sp, #0
 8000a52:	6078      	str	r0, [r7, #4]
  __IO uint32_t tmpreg;
  SET_BIT(RCC->AHB2ENR, Periphs);
 8000a54:	4b08      	ldr	r3, [pc, #32]	; (8000a78 <LL_AHB2_GRP1_EnableClock+0x2c>)
 8000a56:	6cda      	ldr	r2, [r3, #76]	; 0x4c
 8000a58:	4907      	ldr	r1, [pc, #28]	; (8000a78 <LL_AHB2_GRP1_EnableClock+0x2c>)
 8000a5a:	687b      	ldr	r3, [r7, #4]
 8000a5c:	4313      	orrs	r3, r2
 8000a5e:	64cb      	str	r3, [r1, #76]	; 0x4c
  /* Delay after an RCC peripheral clock enabling */
  tmpreg = READ_BIT(RCC->AHB2ENR, Periphs);
 8000a60:	4b05      	ldr	r3, [pc, #20]	; (8000a78 <LL_AHB2_GRP1_EnableClock+0x2c>)
 8000a62:	6cda      	ldr	r2, [r3, #76]	; 0x4c
 8000a64:	687b      	ldr	r3, [r7, #4]
 8000a66:	4013      	ands	r3, r2
 8000a68:	60fb      	str	r3, [r7, #12]
  (void)tmpreg;
 8000a6a:	68fb      	ldr	r3, [r7, #12]
}
 8000a6c:	bf00      	nop
 8000a6e:	3714      	adds	r7, #20
 8000a70:	46bd      	mov	sp, r7
 8000a72:	f85d 7b04 	ldr.w	r7, [sp], #4
 8000a76:	4770      	bx	lr
 8000a78:	40021000 	.word	0x40021000

08000a7c <LL_SYSCFG_SetEXTISource>:
  *         @arg @ref LL_SYSCFG_EXTI_LINE14
  *         @arg @ref LL_SYSCFG_EXTI_LINE15
  * @retval None
  */
__STATIC_INLINE void LL_SYSCFG_SetEXTISource(uint32_t Port, uint32_t Line)
{
 8000a7c:	b480      	push	{r7}
 8000a7e:	b087      	sub	sp, #28
 8000a80:	af00      	add	r7, sp, #0
 8000a82:	6078      	str	r0, [r7, #4]
 8000a84:	6039      	str	r1, [r7, #0]
  MODIFY_REG(SYSCFG->EXTICR[Line & 0xFFU], (Line >> 16U), Port << POSITION_VAL((Line >> 16U)));
 8000a86:	4a17      	ldr	r2, [pc, #92]	; (8000ae4 <LL_SYSCFG_SetEXTISource+0x68>)
 8000a88:	683b      	ldr	r3, [r7, #0]
 8000a8a:	b2db      	uxtb	r3, r3
 8000a8c:	3302      	adds	r3, #2
 8000a8e:	f852 2023 	ldr.w	r2, [r2, r3, lsl #2]
 8000a92:	683b      	ldr	r3, [r7, #0]
 8000a94:	0c1b      	lsrs	r3, r3, #16
 8000a96:	43db      	mvns	r3, r3
 8000a98:	ea02 0103 	and.w	r1, r2, r3
 8000a9c:	683b      	ldr	r3, [r7, #0]
 8000a9e:	0c1b      	lsrs	r3, r3, #16
 8000aa0:	613b      	str	r3, [r7, #16]
  uint32_t result;

#if ((defined (__ARM_ARCH_7M__      ) && (__ARM_ARCH_7M__      == 1)) || \
     (defined (__ARM_ARCH_7EM__     ) && (__ARM_ARCH_7EM__     == 1)) || \
     (defined (__ARM_ARCH_8M_MAIN__ ) && (__ARM_ARCH_8M_MAIN__ == 1))    )
   __ASM volatile ("rbit %0, %1" : "=r" (result) : "r" (value) );
 8000aa2:	693b      	ldr	r3, [r7, #16]
 8000aa4:	fa93 f3a3 	rbit	r3, r3
 8000aa8:	60fb      	str	r3, [r7, #12]
    result |= value & 1U;
    s--;
  }
  result <<= s;                        /* shift when v's highest bits are zero */
#endif
  return result;
 8000aaa:	68fb      	ldr	r3, [r7, #12]
 8000aac:	617b      	str	r3, [r7, #20]
     optimisations using the logic "value was passed to __builtin_clz, so it
     is non-zero".
     ARM GCC 7.3 and possibly earlier will optimise this test away, leaving a
     single CLZ instruction.
   */
  if (value == 0U)
 8000aae:	697b      	ldr	r3, [r7, #20]
 8000ab0:	2b00      	cmp	r3, #0
 8000ab2:	d101      	bne.n	8000ab8 <LL_SYSCFG_SetEXTISource+0x3c>
  {
    return 32U;
 8000ab4:	2320      	movs	r3, #32
 8000ab6:	e003      	b.n	8000ac0 <LL_SYSCFG_SetEXTISource+0x44>
  }
  return __builtin_clz(value);
 8000ab8:	697b      	ldr	r3, [r7, #20]
 8000aba:	fab3 f383 	clz	r3, r3
 8000abe:	b2db      	uxtb	r3, r3
 8000ac0:	461a      	mov	r2, r3
 8000ac2:	687b      	ldr	r3, [r7, #4]
 8000ac4:	fa03 f202 	lsl.w	r2, r3, r2
 8000ac8:	4806      	ldr	r0, [pc, #24]	; (8000ae4 <LL_SYSCFG_SetEXTISource+0x68>)
 8000aca:	683b      	ldr	r3, [r7, #0]
 8000acc:	b2db      	uxtb	r3, r3
 8000ace:	430a      	orrs	r2, r1
 8000ad0:	3302      	adds	r3, #2
 8000ad2:	f840 2023 	str.w	r2, [r0, r3, lsl #2]
}
 8000ad6:	bf00      	nop
 8000ad8:	371c      	adds	r7, #28
 8000ada:	46bd      	mov	sp, r7
 8000adc:	f85d 7b04 	ldr.w	r7, [sp], #4
 8000ae0:	4770      	bx	lr
 8000ae2:	bf00      	nop
 8000ae4:	40010000 	.word	0x40010000

08000ae8 <LL_GPIO_SetPinMode>:
{
 8000ae8:	b480      	push	{r7}
 8000aea:	b08b      	sub	sp, #44	; 0x2c
 8000aec:	af00      	add	r7, sp, #0
 8000aee:	60f8      	str	r0, [r7, #12]
 8000af0:	60b9      	str	r1, [r7, #8]
 8000af2:	607a      	str	r2, [r7, #4]
  MODIFY_REG(GPIOx->MODER, (GPIO_MODER_MODE0 << (POSITION_VAL(Pin) * 2U)), (Mode << (POSITION_VAL(Pin) * 2U)));
 8000af4:	68fb      	ldr	r3, [r7, #12]
 8000af6:	681a      	ldr	r2, [r3, #0]
 8000af8:	68bb      	ldr	r3, [r7, #8]
 8000afa:	617b      	str	r3, [r7, #20]
   __ASM volatile ("rbit %0, %1" : "=r" (result) : "r" (value) );
 8000afc:	697b      	ldr	r3, [r7, #20]
 8000afe:	fa93 f3a3 	rbit	r3, r3
 8000b02:	613b      	str	r3, [r7, #16]
  return result;
 8000b04:	693b      	ldr	r3, [r7, #16]
 8000b06:	61bb      	str	r3, [r7, #24]
  if (value == 0U)
 8000b08:	69bb      	ldr	r3, [r7, #24]
 8000b0a:	2b00      	cmp	r3, #0
 8000b0c:	d101      	bne.n	8000b12 <LL_GPIO_SetPinMode+0x2a>
    return 32U;
 8000b0e:	2320      	movs	r3, #32
 8000b10:	e003      	b.n	8000b1a <LL_GPIO_SetPinMode+0x32>
  return __builtin_clz(value);
 8000b12:	69bb      	ldr	r3, [r7, #24]
 8000b14:	fab3 f383 	clz	r3, r3
 8000b18:	b2db      	uxtb	r3, r3
 8000b1a:	005b      	lsls	r3, r3, #1
 8000b1c:	2103      	movs	r1, #3
 8000b1e:	fa01 f303 	lsl.w	r3, r1, r3
 8000b22:	43db      	mvns	r3, r3
 8000b24:	401a      	ands	r2, r3
 8000b26:	68bb      	ldr	r3, [r7, #8]
 8000b28:	623b      	str	r3, [r7, #32]
   __ASM volatile ("rbit %0, %1" : "=r" (result) : "r" (value) );
 8000b2a:	6a3b      	ldr	r3, [r7, #32]
 8000b2c:	fa93 f3a3 	rbit	r3, r3
 8000b30:	61fb      	str	r3, [r7, #28]
  return result;
 8000b32:	69fb      	ldr	r3, [r7, #28]
 8000b34:	627b      	str	r3, [r7, #36]	; 0x24
  if (value == 0U)
 8000b36:	6a7b      	ldr	r3, [r7, #36]	; 0x24
 8000b38:	2b00      	cmp	r3, #0
 8000b3a:	d101      	bne.n	8000b40 <LL_GPIO_SetPinMode+0x58>
    return 32U;
 8000b3c:	2320      	movs	r3, #32
 8000b3e:	e003      	b.n	8000b48 <LL_GPIO_SetPinMode+0x60>
  return __builtin_clz(value);
 8000b40:	6a7b      	ldr	r3, [r7, #36]	; 0x24
 8000b42:	fab3 f383 	clz	r3, r3
 8000b46:	b2db      	uxtb	r3, r3
 8000b48:	005b      	lsls	r3, r3, #1
 8000b4a:	6879      	ldr	r1, [r7, #4]
 8000b4c:	fa01 f303 	lsl.w	r3, r1, r3
 8000b50:	431a      	orrs	r2, r3
 8000b52:	68fb      	ldr	r3, [r7, #12]
 8000b54:	601a      	str	r2, [r3, #0]
}
 8000b56:	bf00      	nop
 8000b58:	372c      	adds	r7, #44	; 0x2c
 8000b5a:	46bd      	mov	sp, r7
 8000b5c:	f85d 7b04 	ldr.w	r7, [sp], #4
 8000b60:	4770      	bx	lr

08000b62 <LL_GPIO_SetPinPull>:
{
 8000b62:	b480      	push	{r7}
 8000b64:	b08b      	sub	sp, #44	; 0x2c
 8000b66:	af00      	add	r7, sp, #0
 8000b68:	60f8      	str	r0, [r7, #12]
 8000b6a:	60b9      	str	r1, [r7, #8]
 8000b6c:	607a      	str	r2, [r7, #4]
  MODIFY_REG(GPIOx->PUPDR, (GPIO_PUPDR_PUPD0 << (POSITION_VAL(Pin) * 2U)), (Pull << (POSITION_VAL(Pin) * 2U)));
 8000b6e:	68fb      	ldr	r3, [r7, #12]
 8000b70:	68da      	ldr	r2, [r3, #12]
 8000b72:	68bb      	ldr	r3, [r7, #8]
 8000b74:	617b      	str	r3, [r7, #20]
   __ASM volatile ("rbit %0, %1" : "=r" (result) : "r" (value) );
 8000b76:	697b      	ldr	r3, [r7, #20]
 8000b78:	fa93 f3a3 	rbit	r3, r3
 8000b7c:	613b      	str	r3, [r7, #16]
  return result;
 8000b7e:	693b      	ldr	r3, [r7, #16]
 8000b80:	61bb      	str	r3, [r7, #24]
  if (value == 0U)
 8000b82:	69bb      	ldr	r3, [r7, #24]
 8000b84:	2b00      	cmp	r3, #0
 8000b86:	d101      	bne.n	8000b8c <LL_GPIO_SetPinPull+0x2a>
    return 32U;
 8000b88:	2320      	movs	r3, #32
 8000b8a:	e003      	b.n	8000b94 <LL_GPIO_SetPinPull+0x32>
  return __builtin_clz(value);
 8000b8c:	69bb      	ldr	r3, [r7, #24]
 8000b8e:	fab3 f383 	clz	r3, r3
 8000b92:	b2db      	uxtb	r3, r3
 8000b94:	005b      	lsls	r3, r3, #1
 8000b96:	2103      	movs	r1, #3
 8000b98:	fa01 f303 	lsl.w	r3, r1, r3
 8000b9c:	43db      	mvns	r3, r3
 8000b9e:	401a      	ands	r2, r3
 8000ba0:	68bb      	ldr	r3, [r7, #8]
 8000ba2:	623b      	str	r3, [r7, #32]
   __ASM volatile ("rbit %0, %1" : "=r" (result) : "r" (value) );
 8000ba4:	6a3b      	ldr	r3, [r7, #32]
 8000ba6:	fa93 f3a3 	rbit	r3, r3
 8000baa:	61fb      	str	r3, [r7, #28]
  return result;
 8000bac:	69fb      	ldr	r3, [r7, #28]
 8000bae:	627b      	str	r3, [r7, #36]	; 0x24
  if (value == 0U)
 8000bb0:	6a7b      	ldr	r3, [r7, #36]	; 0x24
 8000bb2:	2b00      	cmp	r3, #0
 8000bb4:	d101      	bne.n	8000bba <LL_GPIO_SetPinPull+0x58>
    return 32U;
 8000bb6:	2320      	movs	r3, #32
 8000bb8:	e003      	b.n	8000bc2 <LL_GPIO_SetPinPull+0x60>
  return __builtin_clz(value);
 8000bba:	6a7b      	ldr	r3, [r7, #36]	; 0x24
 8000bbc:	fab3 f383 	clz	r3, r3
 8000bc0:	b2db      	uxtb	r3, r3
 8000bc2:	005b      	lsls	r3, r3, #1
 8000bc4:	6879      	ldr	r1, [r7, #4]
 8000bc6:	fa01 f303 	lsl.w	r3, r1, r3
 8000bca:	431a      	orrs	r2, r3
 8000bcc:	68fb      	ldr	r3, [r7, #12]
 8000bce:	60da      	str	r2, [r3, #12]
}
 8000bd0:	bf00      	nop
 8000bd2:	372c      	adds	r7, #44	; 0x2c
 8000bd4:	46bd      	mov	sp, r7
 8000bd6:	f85d 7b04 	ldr.w	r7, [sp], #4
 8000bda:	4770      	bx	lr

08000bdc <LL_GPIO_SetOutputPin>:
{
 8000bdc:	b480      	push	{r7}
 8000bde:	b083      	sub	sp, #12
 8000be0:	af00      	add	r7, sp, #0
 8000be2:	6078      	str	r0, [r7, #4]
 8000be4:	6039      	str	r1, [r7, #0]
  WRITE_REG(GPIOx->BSRR, PinMask);
 8000be6:	687b      	ldr	r3, [r7, #4]
 8000be8:	683a      	ldr	r2, [r7, #0]
 8000bea:	619a      	str	r2, [r3, #24]
}
 8000bec:	bf00      	nop
 8000bee:	370c      	adds	r7, #12
 8000bf0:	46bd      	mov	sp, r7
 8000bf2:	f85d 7b04 	ldr.w	r7, [sp], #4
 8000bf6:	4770      	bx	lr

08000bf8 <MX_GPIO_Init>:
/* USER CODE END 1 */

/** Configure pins
*/
void MX_GPIO_Init(void)
{
 8000bf8:	b580      	push	{r7, lr}
 8000bfa:	b08a      	sub	sp, #40	; 0x28
 8000bfc:	af00      	add	r7, sp, #0

  LL_EXTI_InitTypeDef EXTI_InitStruct = {0};
 8000bfe:	f107 031c 	add.w	r3, r7, #28
 8000c02:	2200      	movs	r2, #0
 8000c04:	601a      	str	r2, [r3, #0]
 8000c06:	605a      	str	r2, [r3, #4]
 8000c08:	609a      	str	r2, [r3, #8]
  LL_GPIO_InitTypeDef GPIO_InitStruct = {0};
 8000c0a:	1d3b      	adds	r3, r7, #4
 8000c0c:	2200      	movs	r2, #0
 8000c0e:	601a      	str	r2, [r3, #0]
 8000c10:	605a      	str	r2, [r3, #4]
 8000c12:	609a      	str	r2, [r3, #8]
 8000c14:	60da      	str	r2, [r3, #12]
 8000c16:	611a      	str	r2, [r3, #16]
 8000c18:	615a      	str	r2, [r3, #20]

  /* GPIO Ports Clock Enable */
  LL_AHB2_GRP1_EnableClock(LL_AHB2_GRP1_PERIPH_GPIOA);
 8000c1a:	2001      	movs	r0, #1
 8000c1c:	f7ff ff16 	bl	8000a4c <LL_AHB2_GRP1_EnableClock>
  LL_AHB2_GRP1_EnableClock(LL_AHB2_GRP1_PERIPH_GPIOC);
 8000c20:	2004      	movs	r0, #4
 8000c22:	f7ff ff13 	bl	8000a4c <LL_AHB2_GRP1_EnableClock>

  /**/
  LL_GPIO_SetOutputPin(GPIOA, LL_GPIO_PIN_1|LL_GPIO_PIN_2|LL_GPIO_PIN_3);
 8000c26:	210e      	movs	r1, #14
 8000c28:	f04f 4090 	mov.w	r0, #1207959552	; 0x48000000
 8000c2c:	f7ff ffd6 	bl	8000bdc <LL_GPIO_SetOutputPin>

  /**/
  LL_GPIO_SetOutputPin(GPIOC, LL_GPIO_PIN_9);
 8000c30:	f44f 7100 	mov.w	r1, #512	; 0x200
 8000c34:	482b      	ldr	r0, [pc, #172]	; (8000ce4 <MX_GPIO_Init+0xec>)
 8000c36:	f7ff ffd1 	bl	8000bdc <LL_GPIO_SetOutputPin>

  /**/
  GPIO_InitStruct.Pin = LL_GPIO_PIN_1|LL_GPIO_PIN_2|LL_GPIO_PIN_3;
 8000c3a:	230e      	movs	r3, #14
 8000c3c:	607b      	str	r3, [r7, #4]
  GPIO_InitStruct.Mode = LL_GPIO_MODE_OUTPUT;
 8000c3e:	2301      	movs	r3, #1
 8000c40:	60bb      	str	r3, [r7, #8]
  GPIO_InitStruct.Speed = LL_GPIO_SPEED_FREQ_LOW;
 8000c42:	2300      	movs	r3, #0
 8000c44:	60fb      	str	r3, [r7, #12]
  GPIO_InitStruct.OutputType = LL_GPIO_OUTPUT_PUSHPULL;
 8000c46:	2300      	movs	r3, #0
 8000c48:	613b      	str	r3, [r7, #16]
  GPIO_InitStruct.Pull = LL_GPIO_PULL_NO;
 8000c4a:	2300      	movs	r3, #0
 8000c4c:	617b      	str	r3, [r7, #20]
  LL_GPIO_Init(GPIOA, &GPIO_InitStruct);
 8000c4e:	1d3b      	adds	r3, r7, #4
 8000c50:	4619      	mov	r1, r3
 8000c52:	f04f 4090 	mov.w	r0, #1207959552	; 0x48000000
 8000c56:	f001 fa5f 	bl	8002118 <LL_GPIO_Init>

  /**/
  GPIO_InitStruct.Pin = LL_GPIO_PIN_9;
 8000c5a:	f44f 7300 	mov.w	r3, #512	; 0x200
 8000c5e:	607b      	str	r3, [r7, #4]
  GPIO_InitStruct.Mode = LL_GPIO_MODE_OUTPUT;
 8000c60:	2301      	movs	r3, #1
 8000c62:	60bb      	str	r3, [r7, #8]
  GPIO_InitStruct.Speed = LL_GPIO_SPEED_FREQ_LOW;
 8000c64:	2300      	movs	r3, #0
 8000c66:	60fb      	str	r3, [r7, #12]
  GPIO_InitStruct.OutputType = LL_GPIO_OUTPUT_PUSHPULL;
 8000c68:	2300      	movs	r3, #0
 8000c6a:	613b      	str	r3, [r7, #16]
  GPIO_InitStruct.Pull = LL_GPIO_PULL_NO;
 8000c6c:	2300      	movs	r3, #0
 8000c6e:	617b      	str	r3, [r7, #20]
  LL_GPIO_Init(GPIOC, &GPIO_InitStruct);
 8000c70:	1d3b      	adds	r3, r7, #4
 8000c72:	4619      	mov	r1, r3
 8000c74:	481b      	ldr	r0, [pc, #108]	; (8000ce4 <MX_GPIO_Init+0xec>)
 8000c76:	f001 fa4f 	bl	8002118 <LL_GPIO_Init>

  /**/
  LL_SYSCFG_SetEXTISource(LL_SYSCFG_EXTI_PORTC, LL_SYSCFG_EXTI_LINE4);
 8000c7a:	491b      	ldr	r1, [pc, #108]	; (8000ce8 <MX_GPIO_Init+0xf0>)
 8000c7c:	2002      	movs	r0, #2
 8000c7e:	f7ff fefd 	bl	8000a7c <LL_SYSCFG_SetEXTISource>

  /**/
  EXTI_InitStruct.Line_0_31 = LL_EXTI_LINE_4;
 8000c82:	2310      	movs	r3, #16
 8000c84:	61fb      	str	r3, [r7, #28]
  EXTI_InitStruct.Line_32_63 = LL_EXTI_LINE_NONE;
 8000c86:	2300      	movs	r3, #0
 8000c88:	623b      	str	r3, [r7, #32]
  EXTI_InitStruct.LineCommand = ENABLE;
 8000c8a:	2301      	movs	r3, #1
 8000c8c:	f887 3024 	strb.w	r3, [r7, #36]	; 0x24
  EXTI_InitStruct.Mode = LL_EXTI_MODE_IT;
 8000c90:	2300      	movs	r3, #0
 8000c92:	f887 3025 	strb.w	r3, [r7, #37]	; 0x25
  EXTI_InitStruct.Trigger = LL_EXTI_TRIGGER_FALLING;
 8000c96:	2302      	movs	r3, #2
 8000c98:	f887 3026 	strb.w	r3, [r7, #38]	; 0x26
  LL_EXTI_Init(&EXTI_InitStruct);
 8000c9c:	f107 031c 	add.w	r3, r7, #28
 8000ca0:	4618      	mov	r0, r3
 8000ca2:	f000 fff7 	bl	8001c94 <LL_EXTI_Init>

  /**/
  LL_GPIO_SetPinPull(GPIOC, LL_GPIO_PIN_4, LL_GPIO_PULL_NO);
 8000ca6:	2200      	movs	r2, #0
 8000ca8:	2110      	movs	r1, #16
 8000caa:	480e      	ldr	r0, [pc, #56]	; (8000ce4 <MX_GPIO_Init+0xec>)
 8000cac:	f7ff ff59 	bl	8000b62 <LL_GPIO_SetPinPull>

  /**/
  LL_GPIO_SetPinMode(GPIOC, LL_GPIO_PIN_4, LL_GPIO_MODE_INPUT);
 8000cb0:	2200      	movs	r2, #0
 8000cb2:	2110      	movs	r1, #16
 8000cb4:	480b      	ldr	r0, [pc, #44]	; (8000ce4 <MX_GPIO_Init+0xec>)
 8000cb6:	f7ff ff17 	bl	8000ae8 <LL_GPIO_SetPinMode>

  /* EXTI interrupt init*/
  NVIC_SetPriority(EXTI4_IRQn, NVIC_EncodePriority(NVIC_GetPriorityGrouping(),0, 0));
 8000cba:	f7ff fe3d 	bl	8000938 <__NVIC_GetPriorityGrouping>
 8000cbe:	4603      	mov	r3, r0
 8000cc0:	2200      	movs	r2, #0
 8000cc2:	2100      	movs	r1, #0
 8000cc4:	4618      	mov	r0, r3
 8000cc6:	f7ff fe8d 	bl	80009e4 <NVIC_EncodePriority>
 8000cca:	4603      	mov	r3, r0
 8000ccc:	4619      	mov	r1, r3
 8000cce:	200a      	movs	r0, #10
 8000cd0:	f7ff fe5e 	bl	8000990 <__NVIC_SetPriority>
  NVIC_EnableIRQ(EXTI4_IRQn);
 8000cd4:	200a      	movs	r0, #10
 8000cd6:	f7ff fe3d 	bl	8000954 <__NVIC_EnableIRQ>

}
 8000cda:	bf00      	nop
 8000cdc:	3728      	adds	r7, #40	; 0x28
 8000cde:	46bd      	mov	sp, r7
 8000ce0:	bd80      	pop	{r7, pc}
 8000ce2:	bf00      	nop
 8000ce4:	48000800 	.word	0x48000800
 8000ce8:	000f0001 	.word	0x000f0001

08000cec <__NVIC_SetPriorityGrouping>:
{
 8000cec:	b480      	push	{r7}
 8000cee:	b085      	sub	sp, #20
 8000cf0:	af00      	add	r7, sp, #0
 8000cf2:	6078      	str	r0, [r7, #4]
  uint32_t PriorityGroupTmp = (PriorityGroup & (uint32_t)0x07UL);             /* only values 0..7 are used          */
 8000cf4:	687b      	ldr	r3, [r7, #4]
 8000cf6:	f003 0307 	and.w	r3, r3, #7
 8000cfa:	60fb      	str	r3, [r7, #12]
  reg_value  =  SCB->AIRCR;                                                   /* read old register configuration    */
 8000cfc:	4b0c      	ldr	r3, [pc, #48]	; (8000d30 <__NVIC_SetPriorityGrouping+0x44>)
 8000cfe:	68db      	ldr	r3, [r3, #12]
 8000d00:	60bb      	str	r3, [r7, #8]
  reg_value &= ~((uint32_t)(SCB_AIRCR_VECTKEY_Msk | SCB_AIRCR_PRIGROUP_Msk)); /* clear bits to change               */
 8000d02:	68ba      	ldr	r2, [r7, #8]
 8000d04:	f64f 03ff 	movw	r3, #63743	; 0xf8ff
 8000d08:	4013      	ands	r3, r2
 8000d0a:	60bb      	str	r3, [r7, #8]
                (PriorityGroupTmp << SCB_AIRCR_PRIGROUP_Pos)  );              /* Insert write key and priority group */
 8000d0c:	68fb      	ldr	r3, [r7, #12]
 8000d0e:	021a      	lsls	r2, r3, #8
                ((uint32_t)0x5FAUL << SCB_AIRCR_VECTKEY_Pos) |
 8000d10:	68bb      	ldr	r3, [r7, #8]
 8000d12:	4313      	orrs	r3, r2
  reg_value  =  (reg_value                                   |
 8000d14:	f043 63bf 	orr.w	r3, r3, #100139008	; 0x5f80000
 8000d18:	f443 3300 	orr.w	r3, r3, #131072	; 0x20000
 8000d1c:	60bb      	str	r3, [r7, #8]
  SCB->AIRCR =  reg_value;
 8000d1e:	4a04      	ldr	r2, [pc, #16]	; (8000d30 <__NVIC_SetPriorityGrouping+0x44>)
 8000d20:	68bb      	ldr	r3, [r7, #8]
 8000d22:	60d3      	str	r3, [r2, #12]
}
 8000d24:	bf00      	nop
 8000d26:	3714      	adds	r7, #20
 8000d28:	46bd      	mov	sp, r7
 8000d2a:	f85d 7b04 	ldr.w	r7, [sp], #4
 8000d2e:	4770      	bx	lr
 8000d30:	e000ed00 	.word	0xe000ed00

08000d34 <__NVIC_GetPriorityGrouping>:
{
 8000d34:	b480      	push	{r7}
 8000d36:	af00      	add	r7, sp, #0
  return ((uint32_t)((SCB->AIRCR & SCB_AIRCR_PRIGROUP_Msk) >> SCB_AIRCR_PRIGROUP_Pos));
 8000d38:	4b04      	ldr	r3, [pc, #16]	; (8000d4c <__NVIC_GetPriorityGrouping+0x18>)
 8000d3a:	68db      	ldr	r3, [r3, #12]
 8000d3c:	0a1b      	lsrs	r3, r3, #8
 8000d3e:	f003 0307 	and.w	r3, r3, #7
}
 8000d42:	4618      	mov	r0, r3
 8000d44:	46bd      	mov	sp, r7
 8000d46:	f85d 7b04 	ldr.w	r7, [sp], #4
 8000d4a:	4770      	bx	lr
 8000d4c:	e000ed00 	.word	0xe000ed00

08000d50 <__NVIC_EnableIRQ>:
{
 8000d50:	b480      	push	{r7}
 8000d52:	b083      	sub	sp, #12
 8000d54:	af00      	add	r7, sp, #0
 8000d56:	4603      	mov	r3, r0
 8000d58:	71fb      	strb	r3, [r7, #7]
  if ((int32_t)(IRQn) >= 0)
 8000d5a:	f997 3007 	ldrsb.w	r3, [r7, #7]
 8000d5e:	2b00      	cmp	r3, #0
 8000d60:	db0b      	blt.n	8000d7a <__NVIC_EnableIRQ+0x2a>
    NVIC->ISER[(((uint32_t)IRQn) >> 5UL)] = (uint32_t)(1UL << (((uint32_t)IRQn) & 0x1FUL));
 8000d62:	79fb      	ldrb	r3, [r7, #7]
 8000d64:	f003 021f 	and.w	r2, r3, #31
 8000d68:	4907      	ldr	r1, [pc, #28]	; (8000d88 <__NVIC_EnableIRQ+0x38>)
 8000d6a:	f997 3007 	ldrsb.w	r3, [r7, #7]
 8000d6e:	095b      	lsrs	r3, r3, #5
 8000d70:	2001      	movs	r0, #1
 8000d72:	fa00 f202 	lsl.w	r2, r0, r2
 8000d76:	f841 2023 	str.w	r2, [r1, r3, lsl #2]
}
 8000d7a:	bf00      	nop
 8000d7c:	370c      	adds	r7, #12
 8000d7e:	46bd      	mov	sp, r7
 8000d80:	f85d 7b04 	ldr.w	r7, [sp], #4
 8000d84:	4770      	bx	lr
 8000d86:	bf00      	nop
 8000d88:	e000e100 	.word	0xe000e100

08000d8c <__NVIC_DisableIRQ>:
{
 8000d8c:	b480      	push	{r7}
 8000d8e:	b083      	sub	sp, #12
 8000d90:	af00      	add	r7, sp, #0
 8000d92:	4603      	mov	r3, r0
 8000d94:	71fb      	strb	r3, [r7, #7]
  if ((int32_t)(IRQn) >= 0)
 8000d96:	f997 3007 	ldrsb.w	r3, [r7, #7]
 8000d9a:	2b00      	cmp	r3, #0
 8000d9c:	db12      	blt.n	8000dc4 <__NVIC_DisableIRQ+0x38>
    NVIC->ICER[(((uint32_t)IRQn) >> 5UL)] = (uint32_t)(1UL << (((uint32_t)IRQn) & 0x1FUL));
 8000d9e:	79fb      	ldrb	r3, [r7, #7]
 8000da0:	f003 021f 	and.w	r2, r3, #31
 8000da4:	490a      	ldr	r1, [pc, #40]	; (8000dd0 <__NVIC_DisableIRQ+0x44>)
 8000da6:	f997 3007 	ldrsb.w	r3, [r7, #7]
 8000daa:	095b      	lsrs	r3, r3, #5
 8000dac:	2001      	movs	r0, #1
 8000dae:	fa00 f202 	lsl.w	r2, r0, r2
 8000db2:	3320      	adds	r3, #32
 8000db4:	f841 2023 	str.w	r2, [r1, r3, lsl #2]
  __ASM volatile ("dsb 0xF":::"memory");
 8000db8:	f3bf 8f4f 	dsb	sy
}
 8000dbc:	bf00      	nop
  __ASM volatile ("isb 0xF":::"memory");
 8000dbe:	f3bf 8f6f 	isb	sy
}
 8000dc2:	bf00      	nop
}
 8000dc4:	bf00      	nop
 8000dc6:	370c      	adds	r7, #12
 8000dc8:	46bd      	mov	sp, r7
 8000dca:	f85d 7b04 	ldr.w	r7, [sp], #4
 8000dce:	4770      	bx	lr
 8000dd0:	e000e100 	.word	0xe000e100

08000dd4 <__NVIC_SetPriority>:
{
 8000dd4:	b480      	push	{r7}
 8000dd6:	b083      	sub	sp, #12
 8000dd8:	af00      	add	r7, sp, #0
 8000dda:	4603      	mov	r3, r0
 8000ddc:	6039      	str	r1, [r7, #0]
 8000dde:	71fb      	strb	r3, [r7, #7]
  if ((int32_t)(IRQn) >= 0)
 8000de0:	f997 3007 	ldrsb.w	r3, [r7, #7]
 8000de4:	2b00      	cmp	r3, #0
 8000de6:	db0a      	blt.n	8000dfe <__NVIC_SetPriority+0x2a>
    NVIC->IP[((uint32_t)IRQn)]               = (uint8_t)((priority << (8U - __NVIC_PRIO_BITS)) & (uint32_t)0xFFUL);
 8000de8:	683b      	ldr	r3, [r7, #0]
 8000dea:	b2da      	uxtb	r2, r3
 8000dec:	490c      	ldr	r1, [pc, #48]	; (8000e20 <__NVIC_SetPriority+0x4c>)
 8000dee:	f997 3007 	ldrsb.w	r3, [r7, #7]
 8000df2:	0112      	lsls	r2, r2, #4
 8000df4:	b2d2      	uxtb	r2, r2
 8000df6:	440b      	add	r3, r1
 8000df8:	f883 2300 	strb.w	r2, [r3, #768]	; 0x300
}
 8000dfc:	e00a      	b.n	8000e14 <__NVIC_SetPriority+0x40>
    SCB->SHP[(((uint32_t)IRQn) & 0xFUL)-4UL] = (uint8_t)((priority << (8U - __NVIC_PRIO_BITS)) & (uint32_t)0xFFUL);
 8000dfe:	683b      	ldr	r3, [r7, #0]
 8000e00:	b2da      	uxtb	r2, r3
 8000e02:	4908      	ldr	r1, [pc, #32]	; (8000e24 <__NVIC_SetPriority+0x50>)
 8000e04:	79fb      	ldrb	r3, [r7, #7]
 8000e06:	f003 030f 	and.w	r3, r3, #15
 8000e0a:	3b04      	subs	r3, #4
 8000e0c:	0112      	lsls	r2, r2, #4
 8000e0e:	b2d2      	uxtb	r2, r2
 8000e10:	440b      	add	r3, r1
 8000e12:	761a      	strb	r2, [r3, #24]
}
 8000e14:	bf00      	nop
 8000e16:	370c      	adds	r7, #12
 8000e18:	46bd      	mov	sp, r7
 8000e1a:	f85d 7b04 	ldr.w	r7, [sp], #4
 8000e1e:	4770      	bx	lr
 8000e20:	e000e100 	.word	0xe000e100
 8000e24:	e000ed00 	.word	0xe000ed00

08000e28 <NVIC_EncodePriority>:
{
 8000e28:	b480      	push	{r7}
 8000e2a:	b089      	sub	sp, #36	; 0x24
 8000e2c:	af00      	add	r7, sp, #0
 8000e2e:	60f8      	str	r0, [r7, #12]
 8000e30:	60b9      	str	r1, [r7, #8]
 8000e32:	607a      	str	r2, [r7, #4]
  uint32_t PriorityGroupTmp = (PriorityGroup & (uint32_t)0x07UL);   /* only values 0..7 are used          */
 8000e34:	68fb      	ldr	r3, [r7, #12]
 8000e36:	f003 0307 	and.w	r3, r3, #7
 8000e3a:	61fb      	str	r3, [r7, #28]
  PreemptPriorityBits = ((7UL - PriorityGroupTmp) > (uint32_t)(__NVIC_PRIO_BITS)) ? (uint32_t)(__NVIC_PRIO_BITS) : (uint32_t)(7UL - PriorityGroupTmp);
 8000e3c:	69fb      	ldr	r3, [r7, #28]
 8000e3e:	f1c3 0307 	rsb	r3, r3, #7
 8000e42:	2b04      	cmp	r3, #4
 8000e44:	bf28      	it	cs
 8000e46:	2304      	movcs	r3, #4
 8000e48:	61bb      	str	r3, [r7, #24]
  SubPriorityBits     = ((PriorityGroupTmp + (uint32_t)(__NVIC_PRIO_BITS)) < (uint32_t)7UL) ? (uint32_t)0UL : (uint32_t)((PriorityGroupTmp - 7UL) + (uint32_t)(__NVIC_PRIO_BITS));
 8000e4a:	69fb      	ldr	r3, [r7, #28]
 8000e4c:	3304      	adds	r3, #4
 8000e4e:	2b06      	cmp	r3, #6
 8000e50:	d902      	bls.n	8000e58 <NVIC_EncodePriority+0x30>
 8000e52:	69fb      	ldr	r3, [r7, #28]
 8000e54:	3b03      	subs	r3, #3
 8000e56:	e000      	b.n	8000e5a <NVIC_EncodePriority+0x32>
 8000e58:	2300      	movs	r3, #0
 8000e5a:	617b      	str	r3, [r7, #20]
           ((PreemptPriority & (uint32_t)((1UL << (PreemptPriorityBits)) - 1UL)) << SubPriorityBits) |
 8000e5c:	f04f 32ff 	mov.w	r2, #4294967295	; 0xffffffff
 8000e60:	69bb      	ldr	r3, [r7, #24]
 8000e62:	fa02 f303 	lsl.w	r3, r2, r3
 8000e66:	43da      	mvns	r2, r3
 8000e68:	68bb      	ldr	r3, [r7, #8]
 8000e6a:	401a      	ands	r2, r3
 8000e6c:	697b      	ldr	r3, [r7, #20]
 8000e6e:	409a      	lsls	r2, r3
           ((SubPriority     & (uint32_t)((1UL << (SubPriorityBits    )) - 1UL)))
 8000e70:	f04f 31ff 	mov.w	r1, #4294967295	; 0xffffffff
 8000e74:	697b      	ldr	r3, [r7, #20]
 8000e76:	fa01 f303 	lsl.w	r3, r1, r3
 8000e7a:	43d9      	mvns	r1, r3
 8000e7c:	687b      	ldr	r3, [r7, #4]
 8000e7e:	400b      	ands	r3, r1
           ((PreemptPriority & (uint32_t)((1UL << (PreemptPriorityBits)) - 1UL)) << SubPriorityBits) |
 8000e80:	4313      	orrs	r3, r2
}
 8000e82:	4618      	mov	r0, r3
 8000e84:	3724      	adds	r7, #36	; 0x24
 8000e86:	46bd      	mov	sp, r7
 8000e88:	f85d 7b04 	ldr.w	r7, [sp], #4
 8000e8c:	4770      	bx	lr
	...

08000e90 <LL_RCC_HSI_Enable>:
  * @brief  Enable HSI oscillator
  * @rmtoll CR           HSION         LL_RCC_HSI_Enable
  * @retval None
  */
__STATIC_INLINE void LL_RCC_HSI_Enable(void)
{
 8000e90:	b480      	push	{r7}
 8000e92:	af00      	add	r7, sp, #0
  SET_BIT(RCC->CR, RCC_CR_HSION);
 8000e94:	4b05      	ldr	r3, [pc, #20]	; (8000eac <LL_RCC_HSI_Enable+0x1c>)
 8000e96:	681b      	ldr	r3, [r3, #0]
 8000e98:	4a04      	ldr	r2, [pc, #16]	; (8000eac <LL_RCC_HSI_Enable+0x1c>)
 8000e9a:	f443 7380 	orr.w	r3, r3, #256	; 0x100
 8000e9e:	6013      	str	r3, [r2, #0]
}
 8000ea0:	bf00      	nop
 8000ea2:	46bd      	mov	sp, r7
 8000ea4:	f85d 7b04 	ldr.w	r7, [sp], #4
 8000ea8:	4770      	bx	lr
 8000eaa:	bf00      	nop
 8000eac:	40021000 	.word	0x40021000

08000eb0 <LL_RCC_HSI_IsReady>:
  * @brief  Check if HSI clock is ready
  * @rmtoll CR           HSIRDY        LL_RCC_HSI_IsReady
  * @retval State of bit (1 or 0).
  */
__STATIC_INLINE uint32_t LL_RCC_HSI_IsReady(void)
{
 8000eb0:	b480      	push	{r7}
 8000eb2:	af00      	add	r7, sp, #0
  return ((READ_BIT(RCC->CR, RCC_CR_HSIRDY) == RCC_CR_HSIRDY) ? 1UL : 0UL);
 8000eb4:	4b07      	ldr	r3, [pc, #28]	; (8000ed4 <LL_RCC_HSI_IsReady+0x24>)
 8000eb6:	681b      	ldr	r3, [r3, #0]
 8000eb8:	f403 6380 	and.w	r3, r3, #1024	; 0x400
 8000ebc:	f5b3 6f80 	cmp.w	r3, #1024	; 0x400
 8000ec0:	d101      	bne.n	8000ec6 <LL_RCC_HSI_IsReady+0x16>
 8000ec2:	2301      	movs	r3, #1
 8000ec4:	e000      	b.n	8000ec8 <LL_RCC_HSI_IsReady+0x18>
 8000ec6:	2300      	movs	r3, #0
}
 8000ec8:	4618      	mov	r0, r3
 8000eca:	46bd      	mov	sp, r7
 8000ecc:	f85d 7b04 	ldr.w	r7, [sp], #4
 8000ed0:	4770      	bx	lr
 8000ed2:	bf00      	nop
 8000ed4:	40021000 	.word	0x40021000

08000ed8 <LL_RCC_HSI_SetCalibTrimming>:
  * @param  Value Between Min_Data = 0 and Max_Data = 31 on STM32L43x/STM32L44x/STM32L47x/STM32L48x or
  *               between Min_Data = 0 and Max_Data = 127 on other devices
  * @retval None
  */
__STATIC_INLINE void LL_RCC_HSI_SetCalibTrimming(uint32_t Value)
{
 8000ed8:	b480      	push	{r7}
 8000eda:	b083      	sub	sp, #12
 8000edc:	af00      	add	r7, sp, #0
 8000ede:	6078      	str	r0, [r7, #4]
  MODIFY_REG(RCC->ICSCR, RCC_ICSCR_HSITRIM, Value << RCC_ICSCR_HSITRIM_Pos);
 8000ee0:	4b07      	ldr	r3, [pc, #28]	; (8000f00 <LL_RCC_HSI_SetCalibTrimming+0x28>)
 8000ee2:	685b      	ldr	r3, [r3, #4]
 8000ee4:	f023 52f8 	bic.w	r2, r3, #520093696	; 0x1f000000
 8000ee8:	687b      	ldr	r3, [r7, #4]
 8000eea:	061b      	lsls	r3, r3, #24
 8000eec:	4904      	ldr	r1, [pc, #16]	; (8000f00 <LL_RCC_HSI_SetCalibTrimming+0x28>)
 8000eee:	4313      	orrs	r3, r2
 8000ef0:	604b      	str	r3, [r1, #4]
}
 8000ef2:	bf00      	nop
 8000ef4:	370c      	adds	r7, #12
 8000ef6:	46bd      	mov	sp, r7
 8000ef8:	f85d 7b04 	ldr.w	r7, [sp], #4
 8000efc:	4770      	bx	lr
 8000efe:	bf00      	nop
 8000f00:	40021000 	.word	0x40021000

08000f04 <LL_RCC_SetSysClkSource>:
  *         @arg @ref LL_RCC_SYS_CLKSOURCE_HSE
  *         @arg @ref LL_RCC_SYS_CLKSOURCE_PLL
  * @retval None
  */
__STATIC_INLINE void LL_RCC_SetSysClkSource(uint32_t Source)
{
 8000f04:	b480      	push	{r7}
 8000f06:	b083      	sub	sp, #12
 8000f08:	af00      	add	r7, sp, #0
 8000f0a:	6078      	str	r0, [r7, #4]
  MODIFY_REG(RCC->CFGR, RCC_CFGR_SW, Source);
 8000f0c:	4b06      	ldr	r3, [pc, #24]	; (8000f28 <LL_RCC_SetSysClkSource+0x24>)
 8000f0e:	689b      	ldr	r3, [r3, #8]
 8000f10:	f023 0203 	bic.w	r2, r3, #3
 8000f14:	4904      	ldr	r1, [pc, #16]	; (8000f28 <LL_RCC_SetSysClkSource+0x24>)
 8000f16:	687b      	ldr	r3, [r7, #4]
 8000f18:	4313      	orrs	r3, r2
 8000f1a:	608b      	str	r3, [r1, #8]
}
 8000f1c:	bf00      	nop
 8000f1e:	370c      	adds	r7, #12
 8000f20:	46bd      	mov	sp, r7
 8000f22:	f85d 7b04 	ldr.w	r7, [sp], #4
 8000f26:	4770      	bx	lr
 8000f28:	40021000 	.word	0x40021000

08000f2c <LL_RCC_GetSysClkSource>:
  *         @arg @ref LL_RCC_SYS_CLKSOURCE_STATUS_HSI
  *         @arg @ref LL_RCC_SYS_CLKSOURCE_STATUS_HSE
  *         @arg @ref LL_RCC_SYS_CLKSOURCE_STATUS_PLL
  */
__STATIC_INLINE uint32_t LL_RCC_GetSysClkSource(void)
{
 8000f2c:	b480      	push	{r7}
 8000f2e:	af00      	add	r7, sp, #0
  return (uint32_t)(READ_BIT(RCC->CFGR, RCC_CFGR_SWS));
 8000f30:	4b04      	ldr	r3, [pc, #16]	; (8000f44 <LL_RCC_GetSysClkSource+0x18>)
 8000f32:	689b      	ldr	r3, [r3, #8]
 8000f34:	f003 030c 	and.w	r3, r3, #12
}
 8000f38:	4618      	mov	r0, r3
 8000f3a:	46bd      	mov	sp, r7
 8000f3c:	f85d 7b04 	ldr.w	r7, [sp], #4
 8000f40:	4770      	bx	lr
 8000f42:	bf00      	nop
 8000f44:	40021000 	.word	0x40021000

08000f48 <LL_RCC_SetAHBPrescaler>:
  *         @arg @ref LL_RCC_SYSCLK_DIV_256
  *         @arg @ref LL_RCC_SYSCLK_DIV_512
  * @retval None
  */
__STATIC_INLINE void LL_RCC_SetAHBPrescaler(uint32_t Prescaler)
{
 8000f48:	b480      	push	{r7}
 8000f4a:	b083      	sub	sp, #12
 8000f4c:	af00      	add	r7, sp, #0
 8000f4e:	6078      	str	r0, [r7, #4]
  MODIFY_REG(RCC->CFGR, RCC_CFGR_HPRE, Prescaler);
 8000f50:	4b06      	ldr	r3, [pc, #24]	; (8000f6c <LL_RCC_SetAHBPrescaler+0x24>)
 8000f52:	689b      	ldr	r3, [r3, #8]
 8000f54:	f023 02f0 	bic.w	r2, r3, #240	; 0xf0
 8000f58:	4904      	ldr	r1, [pc, #16]	; (8000f6c <LL_RCC_SetAHBPrescaler+0x24>)
 8000f5a:	687b      	ldr	r3, [r7, #4]
 8000f5c:	4313      	orrs	r3, r2
 8000f5e:	608b      	str	r3, [r1, #8]
}
 8000f60:	bf00      	nop
 8000f62:	370c      	adds	r7, #12
 8000f64:	46bd      	mov	sp, r7
 8000f66:	f85d 7b04 	ldr.w	r7, [sp], #4
 8000f6a:	4770      	bx	lr
 8000f6c:	40021000 	.word	0x40021000

08000f70 <LL_RCC_SetAPB1Prescaler>:
  *         @arg @ref LL_RCC_APB1_DIV_8
  *         @arg @ref LL_RCC_APB1_DIV_16
  * @retval None
  */
__STATIC_INLINE void LL_RCC_SetAPB1Prescaler(uint32_t Prescaler)
{
 8000f70:	b480      	push	{r7}
 8000f72:	b083      	sub	sp, #12
 8000f74:	af00      	add	r7, sp, #0
 8000f76:	6078      	str	r0, [r7, #4]
  MODIFY_REG(RCC->CFGR, RCC_CFGR_PPRE1, Prescaler);
 8000f78:	4b06      	ldr	r3, [pc, #24]	; (8000f94 <LL_RCC_SetAPB1Prescaler+0x24>)
 8000f7a:	689b      	ldr	r3, [r3, #8]
 8000f7c:	f423 62e0 	bic.w	r2, r3, #1792	; 0x700
 8000f80:	4904      	ldr	r1, [pc, #16]	; (8000f94 <LL_RCC_SetAPB1Prescaler+0x24>)
 8000f82:	687b      	ldr	r3, [r7, #4]
 8000f84:	4313      	orrs	r3, r2
 8000f86:	608b      	str	r3, [r1, #8]
}
 8000f88:	bf00      	nop
 8000f8a:	370c      	adds	r7, #12
 8000f8c:	46bd      	mov	sp, r7
 8000f8e:	f85d 7b04 	ldr.w	r7, [sp], #4
 8000f92:	4770      	bx	lr
 8000f94:	40021000 	.word	0x40021000

08000f98 <LL_RCC_SetAPB2Prescaler>:
  *         @arg @ref LL_RCC_APB2_DIV_8
  *         @arg @ref LL_RCC_APB2_DIV_16
  * @retval None
  */
__STATIC_INLINE void LL_RCC_SetAPB2Prescaler(uint32_t Prescaler)
{
 8000f98:	b480      	push	{r7}
 8000f9a:	b083      	sub	sp, #12
 8000f9c:	af00      	add	r7, sp, #0
 8000f9e:	6078      	str	r0, [r7, #4]
  MODIFY_REG(RCC->CFGR, RCC_CFGR_PPRE2, Prescaler);
 8000fa0:	4b06      	ldr	r3, [pc, #24]	; (8000fbc <LL_RCC_SetAPB2Prescaler+0x24>)
 8000fa2:	689b      	ldr	r3, [r3, #8]
 8000fa4:	f423 5260 	bic.w	r2, r3, #14336	; 0x3800
 8000fa8:	4904      	ldr	r1, [pc, #16]	; (8000fbc <LL_RCC_SetAPB2Prescaler+0x24>)
 8000faa:	687b      	ldr	r3, [r7, #4]
 8000fac:	4313      	orrs	r3, r2
 8000fae:	608b      	str	r3, [r1, #8]
}
 8000fb0:	bf00      	nop
 8000fb2:	370c      	adds	r7, #12
 8000fb4:	46bd      	mov	sp, r7
 8000fb6:	f85d 7b04 	ldr.w	r7, [sp], #4
 8000fba:	4770      	bx	lr
 8000fbc:	40021000 	.word	0x40021000

08000fc0 <LL_APB1_GRP1_EnableClock>:
  *
  *         (*) value not defined in all devices.
  * @retval None
*/
__STATIC_INLINE void LL_APB1_GRP1_EnableClock(uint32_t Periphs)
{
 8000fc0:	b480      	push	{r7}
 8000fc2:	b085      	sub	sp, #20
 8000fc4:	af00      	add	r7, sp, #0
 8000fc6:	6078      	str	r0, [r7, #4]
  __IO uint32_t tmpreg;
  SET_BIT(RCC->APB1ENR1, Periphs);
 8000fc8:	4b08      	ldr	r3, [pc, #32]	; (8000fec <LL_APB1_GRP1_EnableClock+0x2c>)
 8000fca:	6d9a      	ldr	r2, [r3, #88]	; 0x58
 8000fcc:	4907      	ldr	r1, [pc, #28]	; (8000fec <LL_APB1_GRP1_EnableClock+0x2c>)
 8000fce:	687b      	ldr	r3, [r7, #4]
 8000fd0:	4313      	orrs	r3, r2
 8000fd2:	658b      	str	r3, [r1, #88]	; 0x58
  /* Delay after an RCC peripheral clock enabling */
  tmpreg = READ_BIT(RCC->APB1ENR1, Periphs);
 8000fd4:	4b05      	ldr	r3, [pc, #20]	; (8000fec <LL_APB1_GRP1_EnableClock+0x2c>)
 8000fd6:	6d9a      	ldr	r2, [r3, #88]	; 0x58
 8000fd8:	687b      	ldr	r3, [r7, #4]
 8000fda:	4013      	ands	r3, r2
 8000fdc:	60fb      	str	r3, [r7, #12]
  (void)tmpreg;
 8000fde:	68fb      	ldr	r3, [r7, #12]
}
 8000fe0:	bf00      	nop
 8000fe2:	3714      	adds	r7, #20
 8000fe4:	46bd      	mov	sp, r7
 8000fe6:	f85d 7b04 	ldr.w	r7, [sp], #4
 8000fea:	4770      	bx	lr
 8000fec:	40021000 	.word	0x40021000

08000ff0 <LL_APB2_GRP1_EnableClock>:
  *
  *         (*) value not defined in all devices.
  * @retval None
*/
__STATIC_INLINE void LL_APB2_GRP1_EnableClock(uint32_t Periphs)
{
 8000ff0:	b480      	push	{r7}
 8000ff2:	b085      	sub	sp, #20
 8000ff4:	af00      	add	r7, sp, #0
 8000ff6:	6078      	str	r0, [r7, #4]
  __IO uint32_t tmpreg;
  SET_BIT(RCC->APB2ENR, Periphs);
 8000ff8:	4b08      	ldr	r3, [pc, #32]	; (800101c <LL_APB2_GRP1_EnableClock+0x2c>)
 8000ffa:	6e1a      	ldr	r2, [r3, #96]	; 0x60
 8000ffc:	4907      	ldr	r1, [pc, #28]	; (800101c <LL_APB2_GRP1_EnableClock+0x2c>)
 8000ffe:	687b      	ldr	r3, [r7, #4]
 8001000:	4313      	orrs	r3, r2
 8001002:	660b      	str	r3, [r1, #96]	; 0x60
  /* Delay after an RCC peripheral clock enabling */
  tmpreg = READ_BIT(RCC->APB2ENR, Periphs);
 8001004:	4b05      	ldr	r3, [pc, #20]	; (800101c <LL_APB2_GRP1_EnableClock+0x2c>)
 8001006:	6e1a      	ldr	r2, [r3, #96]	; 0x60
 8001008:	687b      	ldr	r3, [r7, #4]
 800100a:	4013      	ands	r3, r2
 800100c:	60fb      	str	r3, [r7, #12]
  (void)tmpreg;
 800100e:	68fb      	ldr	r3, [r7, #12]
}
 8001010:	bf00      	nop
 8001012:	3714      	adds	r7, #20
 8001014:	46bd      	mov	sp, r7
 8001016:	f85d 7b04 	ldr.w	r7, [sp], #4
 800101a:	4770      	bx	lr
 800101c:	40021000 	.word	0x40021000

08001020 <LL_FLASH_SetLatency>:
  *
  *         (*) value not defined in all devices.
  * @retval None
  */
__STATIC_INLINE void LL_FLASH_SetLatency(uint32_t Latency)
{
 8001020:	b480      	push	{r7}
 8001022:	b083      	sub	sp, #12
 8001024:	af00      	add	r7, sp, #0
 8001026:	6078      	str	r0, [r7, #4]
  MODIFY_REG(FLASH->ACR, FLASH_ACR_LATENCY, Latency);
 8001028:	4b06      	ldr	r3, [pc, #24]	; (8001044 <LL_FLASH_SetLatency+0x24>)
 800102a:	681b      	ldr	r3, [r3, #0]
 800102c:	f023 0207 	bic.w	r2, r3, #7
 8001030:	4904      	ldr	r1, [pc, #16]	; (8001044 <LL_FLASH_SetLatency+0x24>)
 8001032:	687b      	ldr	r3, [r7, #4]
 8001034:	4313      	orrs	r3, r2
 8001036:	600b      	str	r3, [r1, #0]
}
 8001038:	bf00      	nop
 800103a:	370c      	adds	r7, #12
 800103c:	46bd      	mov	sp, r7
 800103e:	f85d 7b04 	ldr.w	r7, [sp], #4
 8001042:	4770      	bx	lr
 8001044:	40022000 	.word	0x40022000

08001048 <LL_FLASH_GetLatency>:
  *         @arg @ref LL_FLASH_LATENCY_15 (*)
  *
  *         (*) value not defined in all devices.
  */
__STATIC_INLINE uint32_t LL_FLASH_GetLatency(void)
{
 8001048:	b480      	push	{r7}
 800104a:	af00      	add	r7, sp, #0
  return (uint32_t)(READ_BIT(FLASH->ACR, FLASH_ACR_LATENCY));
 800104c:	4b04      	ldr	r3, [pc, #16]	; (8001060 <LL_FLASH_GetLatency+0x18>)
 800104e:	681b      	ldr	r3, [r3, #0]
 8001050:	f003 0307 	and.w	r3, r3, #7
}
 8001054:	4618      	mov	r0, r3
 8001056:	46bd      	mov	sp, r7
 8001058:	f85d 7b04 	ldr.w	r7, [sp], #4
 800105c:	4770      	bx	lr
 800105e:	bf00      	nop
 8001060:	40022000 	.word	0x40022000

08001064 <LL_PWR_SetRegulVoltageScaling>:
  *         @arg @ref LL_PWR_REGU_VOLTAGE_SCALE1
  *         @arg @ref LL_PWR_REGU_VOLTAGE_SCALE2
  * @retval None
  */
__STATIC_INLINE void LL_PWR_SetRegulVoltageScaling(uint32_t VoltageScaling)
{
 8001064:	b480      	push	{r7}
 8001066:	b083      	sub	sp, #12
 8001068:	af00      	add	r7, sp, #0
 800106a:	6078      	str	r0, [r7, #4]
  MODIFY_REG(PWR->CR1, PWR_CR1_VOS, VoltageScaling);
 800106c:	4b06      	ldr	r3, [pc, #24]	; (8001088 <LL_PWR_SetRegulVoltageScaling+0x24>)
 800106e:	681b      	ldr	r3, [r3, #0]
 8001070:	f423 62c0 	bic.w	r2, r3, #1536	; 0x600
 8001074:	4904      	ldr	r1, [pc, #16]	; (8001088 <LL_PWR_SetRegulVoltageScaling+0x24>)
 8001076:	687b      	ldr	r3, [r7, #4]
 8001078:	4313      	orrs	r3, r2
 800107a:	600b      	str	r3, [r1, #0]
}
 800107c:	bf00      	nop
 800107e:	370c      	adds	r7, #12
 8001080:	46bd      	mov	sp, r7
 8001082:	f85d 7b04 	ldr.w	r7, [sp], #4
 8001086:	4770      	bx	lr
 8001088:	40007000 	.word	0x40007000

0800108c <main>:
/**
  * @brief  The application entry point.
  * @retval int
  */
int main(void)
{
 800108c:	b580      	push	{r7, lr}
 800108e:	af00      	add	r7, sp, #0
  /* USER CODE BEGIN 1 */
  NVIC_DisableIRQ(EXTI4_IRQn); // disable DRDY interrupts until setup is completed
 8001090:	200a      	movs	r0, #10
 8001092:	f7ff fe7b 	bl	8000d8c <__NVIC_DisableIRQ>
  /* USER CODE END 1 */

  /* MCU Configuration--------------------------------------------------------*/

  /* Reset of all peripherals, Initializes the Flash interface and the Systick. */
  LL_APB2_GRP1_EnableClock(LL_APB2_GRP1_PERIPH_SYSCFG);
 8001096:	2001      	movs	r0, #1
 8001098:	f7ff ffaa 	bl	8000ff0 <LL_APB2_GRP1_EnableClock>
  LL_APB1_GRP1_EnableClock(LL_APB1_GRP1_PERIPH_PWR);
 800109c:	f04f 5080 	mov.w	r0, #268435456	; 0x10000000
 80010a0:	f7ff ff8e 	bl	8000fc0 <LL_APB1_GRP1_EnableClock>

  /* System interrupt init*/
  NVIC_SetPriorityGrouping(NVIC_PRIORITYGROUP_4);
 80010a4:	2003      	movs	r0, #3
 80010a6:	f7ff fe21 	bl	8000cec <__NVIC_SetPriorityGrouping>

  /* SysTick_IRQn interrupt configuration */
  NVIC_SetPriority(SysTick_IRQn, NVIC_EncodePriority(NVIC_GetPriorityGrouping(),15, 0));
 80010aa:	f7ff fe43 	bl	8000d34 <__NVIC_GetPriorityGrouping>
 80010ae:	4603      	mov	r3, r0
 80010b0:	2200      	movs	r2, #0
 80010b2:	210f      	movs	r1, #15
 80010b4:	4618      	mov	r0, r3
 80010b6:	f7ff feb7 	bl	8000e28 <NVIC_EncodePriority>
 80010ba:	4603      	mov	r3, r0
 80010bc:	4619      	mov	r1, r3
 80010be:	f04f 30ff 	mov.w	r0, #4294967295	; 0xffffffff
 80010c2:	f7ff fe87 	bl	8000dd4 <__NVIC_SetPriority>
  /* USER CODE BEGIN Init */

  /* USER CODE END Init */

  /* Configure the system clock */
  SystemClock_Config();
 80010c6:	f000 f81b 	bl	8001100 <SystemClock_Config>
  /* USER CODE BEGIN SysInit */

  /* USER CODE END SysInit */

  /* Initialize all configured peripherals */
  MX_GPIO_Init();
 80010ca:	f7ff fd95 	bl	8000bf8 <MX_GPIO_Init>
  MX_TIM2_Init();
 80010ce:	f000 fc55 	bl	800197c <MX_TIM2_Init>
  MX_DMA_Init();
 80010d2:	f7ff fb85 	bl	80007e0 <MX_DMA_Init>
  MX_SPI3_Init();
 80010d6:	f000 fa61 	bl	800159c <MX_SPI3_Init>
  /* USER CODE BEGIN 2 */
  ADC_first_read(SB_SPIx);
 80010da:	4807      	ldr	r0, [pc, #28]	; (80010f8 <main+0x6c>)
 80010dc:	f7ff f966 	bl	80003ac <ADC_first_read>
  ADC_SPI_DMA_init();
 80010e0:	f7ff fba6 	bl	8000830 <ADC_SPI_DMA_init>
  ADC_set_RX_buffer(rx_buffer);
 80010e4:	4805      	ldr	r0, [pc, #20]	; (80010fc <main+0x70>)
 80010e6:	f7ff f9ed 	bl	80004c4 <ADC_set_RX_buffer>
  ADC_set_num_samples(NUM_SAMPLES);
 80010ea:	2005      	movs	r0, #5
 80010ec:	f7ff f9fa 	bl	80004e4 <ADC_set_num_samples>
  NVIC_EnableIRQ(EXTI4_IRQn);
 80010f0:	200a      	movs	r0, #10
 80010f2:	f7ff fe2d 	bl	8000d50 <__NVIC_EnableIRQ>
  /* USER CODE END 2 */

  /* Infinite loop */
  /* USER CODE BEGIN WHILE */
  while (1)
 80010f6:	e7fe      	b.n	80010f6 <main+0x6a>
 80010f8:	40003c00 	.word	0x40003c00
 80010fc:	20000034 	.word	0x20000034

08001100 <SystemClock_Config>:
/**
  * @brief System Clock Configuration
  * @retval None
  */
void SystemClock_Config(void)
{
 8001100:	b580      	push	{r7, lr}
 8001102:	af00      	add	r7, sp, #0
  LL_FLASH_SetLatency(LL_FLASH_LATENCY_0);
 8001104:	2000      	movs	r0, #0
 8001106:	f7ff ff8b 	bl	8001020 <LL_FLASH_SetLatency>
  while(LL_FLASH_GetLatency()!= LL_FLASH_LATENCY_0)
 800110a:	bf00      	nop
 800110c:	f7ff ff9c 	bl	8001048 <LL_FLASH_GetLatency>
 8001110:	4603      	mov	r3, r0
 8001112:	2b00      	cmp	r3, #0
 8001114:	d1fa      	bne.n	800110c <SystemClock_Config+0xc>
  {
  }
  LL_PWR_SetRegulVoltageScaling(LL_PWR_REGU_VOLTAGE_SCALE1);
 8001116:	f44f 7000 	mov.w	r0, #512	; 0x200
 800111a:	f7ff ffa3 	bl	8001064 <LL_PWR_SetRegulVoltageScaling>
  LL_RCC_HSI_Enable();
 800111e:	f7ff feb7 	bl	8000e90 <LL_RCC_HSI_Enable>

   /* Wait till HSI is ready */
  while(LL_RCC_HSI_IsReady() != 1)
 8001122:	bf00      	nop
 8001124:	f7ff fec4 	bl	8000eb0 <LL_RCC_HSI_IsReady>
 8001128:	4603      	mov	r3, r0
 800112a:	2b01      	cmp	r3, #1
 800112c:	d1fa      	bne.n	8001124 <SystemClock_Config+0x24>
  {

  }
  LL_RCC_HSI_SetCalibTrimming(16);
 800112e:	2010      	movs	r0, #16
 8001130:	f7ff fed2 	bl	8000ed8 <LL_RCC_HSI_SetCalibTrimming>
  LL_RCC_SetSysClkSource(LL_RCC_SYS_CLKSOURCE_HSI);
 8001134:	2001      	movs	r0, #1
 8001136:	f7ff fee5 	bl	8000f04 <LL_RCC_SetSysClkSource>

   /* Wait till System clock is ready */
  while(LL_RCC_GetSysClkSource() != LL_RCC_SYS_CLKSOURCE_STATUS_HSI)
 800113a:	bf00      	nop
 800113c:	f7ff fef6 	bl	8000f2c <LL_RCC_GetSysClkSource>
 8001140:	4603      	mov	r3, r0
 8001142:	2b04      	cmp	r3, #4
 8001144:	d1fa      	bne.n	800113c <SystemClock_Config+0x3c>
  {

  }
  LL_RCC_SetAHBPrescaler(LL_RCC_SYSCLK_DIV_1);
 8001146:	2000      	movs	r0, #0
 8001148:	f7ff fefe 	bl	8000f48 <LL_RCC_SetAHBPrescaler>
  LL_RCC_SetAPB1Prescaler(LL_RCC_APB1_DIV_1);
 800114c:	2000      	movs	r0, #0
 800114e:	f7ff ff0f 	bl	8000f70 <LL_RCC_SetAPB1Prescaler>
  LL_RCC_SetAPB2Prescaler(LL_RCC_APB2_DIV_1);
 8001152:	2000      	movs	r0, #0
 8001154:	f7ff ff20 	bl	8000f98 <LL_RCC_SetAPB2Prescaler>

  LL_Init1msTick(16000000);
 8001158:	4803      	ldr	r0, [pc, #12]	; (8001168 <SystemClock_Config+0x68>)
 800115a:	f001 f9c1 	bl	80024e0 <LL_Init1msTick>

  LL_SetSystemCoreClock(16000000);
 800115e:	4802      	ldr	r0, [pc, #8]	; (8001168 <SystemClock_Config+0x68>)
 8001160:	f001 f9cc 	bl	80024fc <LL_SetSystemCoreClock>
}
 8001164:	bf00      	nop
 8001166:	bd80      	pop	{r7, pc}
 8001168:	00f42400 	.word	0x00f42400

0800116c <LL_DMA_SetDataTransferDirection>:
{
 800116c:	b480      	push	{r7}
 800116e:	b087      	sub	sp, #28
 8001170:	af00      	add	r7, sp, #0
 8001172:	60f8      	str	r0, [r7, #12]
 8001174:	60b9      	str	r1, [r7, #8]
 8001176:	607a      	str	r2, [r7, #4]
  uint32_t dma_base_addr = (uint32_t)DMAx;
 8001178:	68fb      	ldr	r3, [r7, #12]
 800117a:	617b      	str	r3, [r7, #20]
  MODIFY_REG(((DMA_Channel_TypeDef *)(dma_base_addr + CHANNEL_OFFSET_TAB[Channel]))->CCR,
 800117c:	4a0e      	ldr	r2, [pc, #56]	; (80011b8 <LL_DMA_SetDataTransferDirection+0x4c>)
 800117e:	68bb      	ldr	r3, [r7, #8]
 8001180:	4413      	add	r3, r2
 8001182:	781b      	ldrb	r3, [r3, #0]
 8001184:	461a      	mov	r2, r3
 8001186:	697b      	ldr	r3, [r7, #20]
 8001188:	4413      	add	r3, r2
 800118a:	681b      	ldr	r3, [r3, #0]
 800118c:	f423 4380 	bic.w	r3, r3, #16384	; 0x4000
 8001190:	f023 0310 	bic.w	r3, r3, #16
 8001194:	4908      	ldr	r1, [pc, #32]	; (80011b8 <LL_DMA_SetDataTransferDirection+0x4c>)
 8001196:	68ba      	ldr	r2, [r7, #8]
 8001198:	440a      	add	r2, r1
 800119a:	7812      	ldrb	r2, [r2, #0]
 800119c:	4611      	mov	r1, r2
 800119e:	697a      	ldr	r2, [r7, #20]
 80011a0:	440a      	add	r2, r1
 80011a2:	4611      	mov	r1, r2
 80011a4:	687a      	ldr	r2, [r7, #4]
 80011a6:	4313      	orrs	r3, r2
 80011a8:	600b      	str	r3, [r1, #0]
}
 80011aa:	bf00      	nop
 80011ac:	371c      	adds	r7, #28
 80011ae:	46bd      	mov	sp, r7
 80011b0:	f85d 7b04 	ldr.w	r7, [sp], #4
 80011b4:	4770      	bx	lr
 80011b6:	bf00      	nop
 80011b8:	0800259c 	.word	0x0800259c

080011bc <LL_DMA_SetMode>:
{
 80011bc:	b480      	push	{r7}
 80011be:	b087      	sub	sp, #28
 80011c0:	af00      	add	r7, sp, #0
 80011c2:	60f8      	str	r0, [r7, #12]
 80011c4:	60b9      	str	r1, [r7, #8]
 80011c6:	607a      	str	r2, [r7, #4]
  uint32_t dma_base_addr = (uint32_t)DMAx;
 80011c8:	68fb      	ldr	r3, [r7, #12]
 80011ca:	617b      	str	r3, [r7, #20]
  MODIFY_REG(((DMA_Channel_TypeDef *)(dma_base_addr + CHANNEL_OFFSET_TAB[Channel]))->CCR, DMA_CCR_CIRC,
 80011cc:	4a0d      	ldr	r2, [pc, #52]	; (8001204 <LL_DMA_SetMode+0x48>)
 80011ce:	68bb      	ldr	r3, [r7, #8]
 80011d0:	4413      	add	r3, r2
 80011d2:	781b      	ldrb	r3, [r3, #0]
 80011d4:	461a      	mov	r2, r3
 80011d6:	697b      	ldr	r3, [r7, #20]
 80011d8:	4413      	add	r3, r2
 80011da:	681b      	ldr	r3, [r3, #0]
 80011dc:	f023 0220 	bic.w	r2, r3, #32
 80011e0:	4908      	ldr	r1, [pc, #32]	; (8001204 <LL_DMA_SetMode+0x48>)
 80011e2:	68bb      	ldr	r3, [r7, #8]
 80011e4:	440b      	add	r3, r1
 80011e6:	781b      	ldrb	r3, [r3, #0]
 80011e8:	4619      	mov	r1, r3
 80011ea:	697b      	ldr	r3, [r7, #20]
 80011ec:	440b      	add	r3, r1
 80011ee:	4619      	mov	r1, r3
 80011f0:	687b      	ldr	r3, [r7, #4]
 80011f2:	4313      	orrs	r3, r2
 80011f4:	600b      	str	r3, [r1, #0]
}
 80011f6:	bf00      	nop
 80011f8:	371c      	adds	r7, #28
 80011fa:	46bd      	mov	sp, r7
 80011fc:	f85d 7b04 	ldr.w	r7, [sp], #4
 8001200:	4770      	bx	lr
 8001202:	bf00      	nop
 8001204:	0800259c 	.word	0x0800259c

08001208 <LL_DMA_SetPeriphIncMode>:
{
 8001208:	b480      	push	{r7}
 800120a:	b087      	sub	sp, #28
 800120c:	af00      	add	r7, sp, #0
 800120e:	60f8      	str	r0, [r7, #12]
 8001210:	60b9      	str	r1, [r7, #8]
 8001212:	607a      	str	r2, [r7, #4]
    uint32_t dma_base_addr = (uint32_t)DMAx;
 8001214:	68fb      	ldr	r3, [r7, #12]
 8001216:	617b      	str	r3, [r7, #20]
    MODIFY_REG(((DMA_Channel_TypeDef *)(dma_base_addr + CHANNEL_OFFSET_TAB[Channel]))->CCR, DMA_CCR_PINC,
 8001218:	4a0d      	ldr	r2, [pc, #52]	; (8001250 <LL_DMA_SetPeriphIncMode+0x48>)
 800121a:	68bb      	ldr	r3, [r7, #8]
 800121c:	4413      	add	r3, r2
 800121e:	781b      	ldrb	r3, [r3, #0]
 8001220:	461a      	mov	r2, r3
 8001222:	697b      	ldr	r3, [r7, #20]
 8001224:	4413      	add	r3, r2
 8001226:	681b      	ldr	r3, [r3, #0]
 8001228:	f023 0240 	bic.w	r2, r3, #64	; 0x40
 800122c:	4908      	ldr	r1, [pc, #32]	; (8001250 <LL_DMA_SetPeriphIncMode+0x48>)
 800122e:	68bb      	ldr	r3, [r7, #8]
 8001230:	440b      	add	r3, r1
 8001232:	781b      	ldrb	r3, [r3, #0]
 8001234:	4619      	mov	r1, r3
 8001236:	697b      	ldr	r3, [r7, #20]
 8001238:	440b      	add	r3, r1
 800123a:	4619      	mov	r1, r3
 800123c:	687b      	ldr	r3, [r7, #4]
 800123e:	4313      	orrs	r3, r2
 8001240:	600b      	str	r3, [r1, #0]
}
 8001242:	bf00      	nop
 8001244:	371c      	adds	r7, #28
 8001246:	46bd      	mov	sp, r7
 8001248:	f85d 7b04 	ldr.w	r7, [sp], #4
 800124c:	4770      	bx	lr
 800124e:	bf00      	nop
 8001250:	0800259c 	.word	0x0800259c

08001254 <LL_DMA_SetMemoryIncMode>:
{
 8001254:	b480      	push	{r7}
 8001256:	b087      	sub	sp, #28
 8001258:	af00      	add	r7, sp, #0
 800125a:	60f8      	str	r0, [r7, #12]
 800125c:	60b9      	str	r1, [r7, #8]
 800125e:	607a      	str	r2, [r7, #4]
  uint32_t dma_base_addr = (uint32_t)DMAx;
 8001260:	68fb      	ldr	r3, [r7, #12]
 8001262:	617b      	str	r3, [r7, #20]
  MODIFY_REG(((DMA_Channel_TypeDef *)(dma_base_addr + CHANNEL_OFFSET_TAB[Channel]))->CCR, DMA_CCR_MINC,
 8001264:	4a0d      	ldr	r2, [pc, #52]	; (800129c <LL_DMA_SetMemoryIncMode+0x48>)
 8001266:	68bb      	ldr	r3, [r7, #8]
 8001268:	4413      	add	r3, r2
 800126a:	781b      	ldrb	r3, [r3, #0]
 800126c:	461a      	mov	r2, r3
 800126e:	697b      	ldr	r3, [r7, #20]
 8001270:	4413      	add	r3, r2
 8001272:	681b      	ldr	r3, [r3, #0]
 8001274:	f023 0280 	bic.w	r2, r3, #128	; 0x80
 8001278:	4908      	ldr	r1, [pc, #32]	; (800129c <LL_DMA_SetMemoryIncMode+0x48>)
 800127a:	68bb      	ldr	r3, [r7, #8]
 800127c:	440b      	add	r3, r1
 800127e:	781b      	ldrb	r3, [r3, #0]
 8001280:	4619      	mov	r1, r3
 8001282:	697b      	ldr	r3, [r7, #20]
 8001284:	440b      	add	r3, r1
 8001286:	4619      	mov	r1, r3
 8001288:	687b      	ldr	r3, [r7, #4]
 800128a:	4313      	orrs	r3, r2
 800128c:	600b      	str	r3, [r1, #0]
}
 800128e:	bf00      	nop
 8001290:	371c      	adds	r7, #28
 8001292:	46bd      	mov	sp, r7
 8001294:	f85d 7b04 	ldr.w	r7, [sp], #4
 8001298:	4770      	bx	lr
 800129a:	bf00      	nop
 800129c:	0800259c 	.word	0x0800259c

080012a0 <LL_DMA_SetPeriphSize>:
{
 80012a0:	b480      	push	{r7}
 80012a2:	b087      	sub	sp, #28
 80012a4:	af00      	add	r7, sp, #0
 80012a6:	60f8      	str	r0, [r7, #12]
 80012a8:	60b9      	str	r1, [r7, #8]
 80012aa:	607a      	str	r2, [r7, #4]
  uint32_t dma_base_addr = (uint32_t)DMAx;
 80012ac:	68fb      	ldr	r3, [r7, #12]
 80012ae:	617b      	str	r3, [r7, #20]
  MODIFY_REG(((DMA_Channel_TypeDef *)(dma_base_addr + CHANNEL_OFFSET_TAB[Channel]))->CCR, DMA_CCR_PSIZE, 
 80012b0:	4a0d      	ldr	r2, [pc, #52]	; (80012e8 <LL_DMA_SetPeriphSize+0x48>)
 80012b2:	68bb      	ldr	r3, [r7, #8]
 80012b4:	4413      	add	r3, r2
 80012b6:	781b      	ldrb	r3, [r3, #0]
 80012b8:	461a      	mov	r2, r3
 80012ba:	697b      	ldr	r3, [r7, #20]
 80012bc:	4413      	add	r3, r2
 80012be:	681b      	ldr	r3, [r3, #0]
 80012c0:	f423 7240 	bic.w	r2, r3, #768	; 0x300
 80012c4:	4908      	ldr	r1, [pc, #32]	; (80012e8 <LL_DMA_SetPeriphSize+0x48>)
 80012c6:	68bb      	ldr	r3, [r7, #8]
 80012c8:	440b      	add	r3, r1
 80012ca:	781b      	ldrb	r3, [r3, #0]
 80012cc:	4619      	mov	r1, r3
 80012ce:	697b      	ldr	r3, [r7, #20]
 80012d0:	440b      	add	r3, r1
 80012d2:	4619      	mov	r1, r3
 80012d4:	687b      	ldr	r3, [r7, #4]
 80012d6:	4313      	orrs	r3, r2
 80012d8:	600b      	str	r3, [r1, #0]
}
 80012da:	bf00      	nop
 80012dc:	371c      	adds	r7, #28
 80012de:	46bd      	mov	sp, r7
 80012e0:	f85d 7b04 	ldr.w	r7, [sp], #4
 80012e4:	4770      	bx	lr
 80012e6:	bf00      	nop
 80012e8:	0800259c 	.word	0x0800259c

080012ec <LL_DMA_SetMemorySize>:
{
 80012ec:	b480      	push	{r7}
 80012ee:	b087      	sub	sp, #28
 80012f0:	af00      	add	r7, sp, #0
 80012f2:	60f8      	str	r0, [r7, #12]
 80012f4:	60b9      	str	r1, [r7, #8]
 80012f6:	607a      	str	r2, [r7, #4]
  uint32_t dma_base_addr = (uint32_t)DMAx;
 80012f8:	68fb      	ldr	r3, [r7, #12]
 80012fa:	617b      	str	r3, [r7, #20]
  MODIFY_REG(((DMA_Channel_TypeDef *)(dma_base_addr + CHANNEL_OFFSET_TAB[Channel]))->CCR, DMA_CCR_MSIZE,
 80012fc:	4a0d      	ldr	r2, [pc, #52]	; (8001334 <LL_DMA_SetMemorySize+0x48>)
 80012fe:	68bb      	ldr	r3, [r7, #8]
 8001300:	4413      	add	r3, r2
 8001302:	781b      	ldrb	r3, [r3, #0]
 8001304:	461a      	mov	r2, r3
 8001306:	697b      	ldr	r3, [r7, #20]
 8001308:	4413      	add	r3, r2
 800130a:	681b      	ldr	r3, [r3, #0]
 800130c:	f423 6240 	bic.w	r2, r3, #3072	; 0xc00
 8001310:	4908      	ldr	r1, [pc, #32]	; (8001334 <LL_DMA_SetMemorySize+0x48>)
 8001312:	68bb      	ldr	r3, [r7, #8]
 8001314:	440b      	add	r3, r1
 8001316:	781b      	ldrb	r3, [r3, #0]
 8001318:	4619      	mov	r1, r3
 800131a:	697b      	ldr	r3, [r7, #20]
 800131c:	440b      	add	r3, r1
 800131e:	4619      	mov	r1, r3
 8001320:	687b      	ldr	r3, [r7, #4]
 8001322:	4313      	orrs	r3, r2
 8001324:	600b      	str	r3, [r1, #0]
}
 8001326:	bf00      	nop
 8001328:	371c      	adds	r7, #28
 800132a:	46bd      	mov	sp, r7
 800132c:	f85d 7b04 	ldr.w	r7, [sp], #4
 8001330:	4770      	bx	lr
 8001332:	bf00      	nop
 8001334:	0800259c 	.word	0x0800259c

08001338 <LL_DMA_SetChannelPriorityLevel>:
{
 8001338:	b480      	push	{r7}
 800133a:	b087      	sub	sp, #28
 800133c:	af00      	add	r7, sp, #0
 800133e:	60f8      	str	r0, [r7, #12]
 8001340:	60b9      	str	r1, [r7, #8]
 8001342:	607a      	str	r2, [r7, #4]
  uint32_t dma_base_addr = (uint32_t)DMAx;
 8001344:	68fb      	ldr	r3, [r7, #12]
 8001346:	617b      	str	r3, [r7, #20]
  MODIFY_REG(((DMA_Channel_TypeDef *)(dma_base_addr + CHANNEL_OFFSET_TAB[Channel]))->CCR, DMA_CCR_PL,
 8001348:	4a0d      	ldr	r2, [pc, #52]	; (8001380 <LL_DMA_SetChannelPriorityLevel+0x48>)
 800134a:	68bb      	ldr	r3, [r7, #8]
 800134c:	4413      	add	r3, r2
 800134e:	781b      	ldrb	r3, [r3, #0]
 8001350:	461a      	mov	r2, r3
 8001352:	697b      	ldr	r3, [r7, #20]
 8001354:	4413      	add	r3, r2
 8001356:	681b      	ldr	r3, [r3, #0]
 8001358:	f423 5240 	bic.w	r2, r3, #12288	; 0x3000
 800135c:	4908      	ldr	r1, [pc, #32]	; (8001380 <LL_DMA_SetChannelPriorityLevel+0x48>)
 800135e:	68bb      	ldr	r3, [r7, #8]
 8001360:	440b      	add	r3, r1
 8001362:	781b      	ldrb	r3, [r3, #0]
 8001364:	4619      	mov	r1, r3
 8001366:	697b      	ldr	r3, [r7, #20]
 8001368:	440b      	add	r3, r1
 800136a:	4619      	mov	r1, r3
 800136c:	687b      	ldr	r3, [r7, #4]
 800136e:	4313      	orrs	r3, r2
 8001370:	600b      	str	r3, [r1, #0]
}
 8001372:	bf00      	nop
 8001374:	371c      	adds	r7, #28
 8001376:	46bd      	mov	sp, r7
 8001378:	f85d 7b04 	ldr.w	r7, [sp], #4
 800137c:	4770      	bx	lr
 800137e:	bf00      	nop
 8001380:	0800259c 	.word	0x0800259c

08001384 <LL_DMA_SetPeriphRequest>:
{
 8001384:	b480      	push	{r7}
 8001386:	b089      	sub	sp, #36	; 0x24
 8001388:	af00      	add	r7, sp, #0
 800138a:	60f8      	str	r0, [r7, #12]
 800138c:	60b9      	str	r1, [r7, #8]
 800138e:	607a      	str	r2, [r7, #4]
  MODIFY_REG(((DMA_Request_TypeDef *)((uint32_t)((uint32_t)DMAx + DMA_CSELR_OFFSET)))->CSELR,
 8001390:	68fb      	ldr	r3, [r7, #12]
 8001392:	33a8      	adds	r3, #168	; 0xa8
 8001394:	681a      	ldr	r2, [r3, #0]
 8001396:	68bb      	ldr	r3, [r7, #8]
 8001398:	009b      	lsls	r3, r3, #2
 800139a:	210f      	movs	r1, #15
 800139c:	fa01 f303 	lsl.w	r3, r1, r3
 80013a0:	43db      	mvns	r3, r3
 80013a2:	401a      	ands	r2, r3
 80013a4:	68bb      	ldr	r3, [r7, #8]
 80013a6:	009b      	lsls	r3, r3, #2
 80013a8:	210f      	movs	r1, #15
 80013aa:	fa01 f303 	lsl.w	r3, r1, r3
 80013ae:	61bb      	str	r3, [r7, #24]
   __ASM volatile ("rbit %0, %1" : "=r" (result) : "r" (value) );
 80013b0:	69bb      	ldr	r3, [r7, #24]
 80013b2:	fa93 f3a3 	rbit	r3, r3
 80013b6:	617b      	str	r3, [r7, #20]
  return result;
 80013b8:	697b      	ldr	r3, [r7, #20]
 80013ba:	61fb      	str	r3, [r7, #28]
  if (value == 0U)
 80013bc:	69fb      	ldr	r3, [r7, #28]
 80013be:	2b00      	cmp	r3, #0
 80013c0:	d101      	bne.n	80013c6 <LL_DMA_SetPeriphRequest+0x42>
    return 32U;
 80013c2:	2320      	movs	r3, #32
 80013c4:	e003      	b.n	80013ce <LL_DMA_SetPeriphRequest+0x4a>
  return __builtin_clz(value);
 80013c6:	69fb      	ldr	r3, [r7, #28]
 80013c8:	fab3 f383 	clz	r3, r3
 80013cc:	b2db      	uxtb	r3, r3
 80013ce:	4619      	mov	r1, r3
 80013d0:	687b      	ldr	r3, [r7, #4]
 80013d2:	408b      	lsls	r3, r1
 80013d4:	68f9      	ldr	r1, [r7, #12]
 80013d6:	31a8      	adds	r1, #168	; 0xa8
 80013d8:	4313      	orrs	r3, r2
 80013da:	600b      	str	r3, [r1, #0]
}
 80013dc:	bf00      	nop
 80013de:	3724      	adds	r7, #36	; 0x24
 80013e0:	46bd      	mov	sp, r7
 80013e2:	f85d 7b04 	ldr.w	r7, [sp], #4
 80013e6:	4770      	bx	lr

080013e8 <LL_AHB2_GRP1_EnableClock>:
{
 80013e8:	b480      	push	{r7}
 80013ea:	b085      	sub	sp, #20
 80013ec:	af00      	add	r7, sp, #0
 80013ee:	6078      	str	r0, [r7, #4]
  SET_BIT(RCC->AHB2ENR, Periphs);
 80013f0:	4b08      	ldr	r3, [pc, #32]	; (8001414 <LL_AHB2_GRP1_EnableClock+0x2c>)
 80013f2:	6cda      	ldr	r2, [r3, #76]	; 0x4c
 80013f4:	4907      	ldr	r1, [pc, #28]	; (8001414 <LL_AHB2_GRP1_EnableClock+0x2c>)
 80013f6:	687b      	ldr	r3, [r7, #4]
 80013f8:	4313      	orrs	r3, r2
 80013fa:	64cb      	str	r3, [r1, #76]	; 0x4c
  tmpreg = READ_BIT(RCC->AHB2ENR, Periphs);
 80013fc:	4b05      	ldr	r3, [pc, #20]	; (8001414 <LL_AHB2_GRP1_EnableClock+0x2c>)
 80013fe:	6cda      	ldr	r2, [r3, #76]	; 0x4c
 8001400:	687b      	ldr	r3, [r7, #4]
 8001402:	4013      	ands	r3, r2
 8001404:	60fb      	str	r3, [r7, #12]
  (void)tmpreg;
 8001406:	68fb      	ldr	r3, [r7, #12]
}
 8001408:	bf00      	nop
 800140a:	3714      	adds	r7, #20
 800140c:	46bd      	mov	sp, r7
 800140e:	f85d 7b04 	ldr.w	r7, [sp], #4
 8001412:	4770      	bx	lr
 8001414:	40021000 	.word	0x40021000

08001418 <LL_APB1_GRP1_EnableClock>:
{
 8001418:	b480      	push	{r7}
 800141a:	b085      	sub	sp, #20
 800141c:	af00      	add	r7, sp, #0
 800141e:	6078      	str	r0, [r7, #4]
  SET_BIT(RCC->APB1ENR1, Periphs);
 8001420:	4b08      	ldr	r3, [pc, #32]	; (8001444 <LL_APB1_GRP1_EnableClock+0x2c>)
 8001422:	6d9a      	ldr	r2, [r3, #88]	; 0x58
 8001424:	4907      	ldr	r1, [pc, #28]	; (8001444 <LL_APB1_GRP1_EnableClock+0x2c>)
 8001426:	687b      	ldr	r3, [r7, #4]
 8001428:	4313      	orrs	r3, r2
 800142a:	658b      	str	r3, [r1, #88]	; 0x58
  tmpreg = READ_BIT(RCC->APB1ENR1, Periphs);
 800142c:	4b05      	ldr	r3, [pc, #20]	; (8001444 <LL_APB1_GRP1_EnableClock+0x2c>)
 800142e:	6d9a      	ldr	r2, [r3, #88]	; 0x58
 8001430:	687b      	ldr	r3, [r7, #4]
 8001432:	4013      	ands	r3, r2
 8001434:	60fb      	str	r3, [r7, #12]
  (void)tmpreg;
 8001436:	68fb      	ldr	r3, [r7, #12]
}
 8001438:	bf00      	nop
 800143a:	3714      	adds	r7, #20
 800143c:	46bd      	mov	sp, r7
 800143e:	f85d 7b04 	ldr.w	r7, [sp], #4
 8001442:	4770      	bx	lr
 8001444:	40021000 	.word	0x40021000

08001448 <LL_SPI_Enable>:
{
 8001448:	b480      	push	{r7}
 800144a:	b083      	sub	sp, #12
 800144c:	af00      	add	r7, sp, #0
 800144e:	6078      	str	r0, [r7, #4]
  SET_BIT(SPIx->CR1, SPI_CR1_SPE);
 8001450:	687b      	ldr	r3, [r7, #4]
 8001452:	681b      	ldr	r3, [r3, #0]
 8001454:	f043 0240 	orr.w	r2, r3, #64	; 0x40
 8001458:	687b      	ldr	r3, [r7, #4]
 800145a:	601a      	str	r2, [r3, #0]
}
 800145c:	bf00      	nop
 800145e:	370c      	adds	r7, #12
 8001460:	46bd      	mov	sp, r7
 8001462:	f85d 7b04 	ldr.w	r7, [sp], #4
 8001466:	4770      	bx	lr

08001468 <LL_SPI_Disable>:
{
 8001468:	b480      	push	{r7}
 800146a:	b083      	sub	sp, #12
 800146c:	af00      	add	r7, sp, #0
 800146e:	6078      	str	r0, [r7, #4]
  CLEAR_BIT(SPIx->CR1, SPI_CR1_SPE);
 8001470:	687b      	ldr	r3, [r7, #4]
 8001472:	681b      	ldr	r3, [r3, #0]
 8001474:	f023 0240 	bic.w	r2, r3, #64	; 0x40
 8001478:	687b      	ldr	r3, [r7, #4]
 800147a:	601a      	str	r2, [r3, #0]
}
 800147c:	bf00      	nop
 800147e:	370c      	adds	r7, #12
 8001480:	46bd      	mov	sp, r7
 8001482:	f85d 7b04 	ldr.w	r7, [sp], #4
 8001486:	4770      	bx	lr

08001488 <LL_SPI_SetStandard>:
{
 8001488:	b480      	push	{r7}
 800148a:	b083      	sub	sp, #12
 800148c:	af00      	add	r7, sp, #0
 800148e:	6078      	str	r0, [r7, #4]
 8001490:	6039      	str	r1, [r7, #0]
  MODIFY_REG(SPIx->CR2, SPI_CR2_FRF, Standard);
 8001492:	687b      	ldr	r3, [r7, #4]
 8001494:	685b      	ldr	r3, [r3, #4]
 8001496:	f023 0210 	bic.w	r2, r3, #16
 800149a:	683b      	ldr	r3, [r7, #0]
 800149c:	431a      	orrs	r2, r3
 800149e:	687b      	ldr	r3, [r7, #4]
 80014a0:	605a      	str	r2, [r3, #4]
}
 80014a2:	bf00      	nop
 80014a4:	370c      	adds	r7, #12
 80014a6:	46bd      	mov	sp, r7
 80014a8:	f85d 7b04 	ldr.w	r7, [sp], #4
 80014ac:	4770      	bx	lr

080014ae <LL_SPI_DisableNSSPulseMgt>:
{
 80014ae:	b480      	push	{r7}
 80014b0:	b083      	sub	sp, #12
 80014b2:	af00      	add	r7, sp, #0
 80014b4:	6078      	str	r0, [r7, #4]
  CLEAR_BIT(SPIx->CR2, SPI_CR2_NSSP);
 80014b6:	687b      	ldr	r3, [r7, #4]
 80014b8:	685b      	ldr	r3, [r3, #4]
 80014ba:	f023 0208 	bic.w	r2, r3, #8
 80014be:	687b      	ldr	r3, [r7, #4]
 80014c0:	605a      	str	r2, [r3, #4]
}
 80014c2:	bf00      	nop
 80014c4:	370c      	adds	r7, #12
 80014c6:	46bd      	mov	sp, r7
 80014c8:	f85d 7b04 	ldr.w	r7, [sp], #4
 80014cc:	4770      	bx	lr

080014ce <LL_SPI_IsActiveFlag_RXNE>:
{
 80014ce:	b480      	push	{r7}
 80014d0:	b083      	sub	sp, #12
 80014d2:	af00      	add	r7, sp, #0
 80014d4:	6078      	str	r0, [r7, #4]
  return ((READ_BIT(SPIx->SR, SPI_SR_RXNE) == (SPI_SR_RXNE)) ? 1UL : 0UL);
 80014d6:	687b      	ldr	r3, [r7, #4]
 80014d8:	689b      	ldr	r3, [r3, #8]
 80014da:	f003 0301 	and.w	r3, r3, #1
 80014de:	2b01      	cmp	r3, #1
 80014e0:	d101      	bne.n	80014e6 <LL_SPI_IsActiveFlag_RXNE+0x18>
 80014e2:	2301      	movs	r3, #1
 80014e4:	e000      	b.n	80014e8 <LL_SPI_IsActiveFlag_RXNE+0x1a>
 80014e6:	2300      	movs	r3, #0
}
 80014e8:	4618      	mov	r0, r3
 80014ea:	370c      	adds	r7, #12
 80014ec:	46bd      	mov	sp, r7
 80014ee:	f85d 7b04 	ldr.w	r7, [sp], #4
 80014f2:	4770      	bx	lr

080014f4 <LL_SPI_IsActiveFlag_TXE>:
{
 80014f4:	b480      	push	{r7}
 80014f6:	b083      	sub	sp, #12
 80014f8:	af00      	add	r7, sp, #0
 80014fa:	6078      	str	r0, [r7, #4]
  return ((READ_BIT(SPIx->SR, SPI_SR_TXE) == (SPI_SR_TXE)) ? 1UL : 0UL);
 80014fc:	687b      	ldr	r3, [r7, #4]
 80014fe:	689b      	ldr	r3, [r3, #8]
 8001500:	f003 0302 	and.w	r3, r3, #2
 8001504:	2b02      	cmp	r3, #2
 8001506:	d101      	bne.n	800150c <LL_SPI_IsActiveFlag_TXE+0x18>
 8001508:	2301      	movs	r3, #1
 800150a:	e000      	b.n	800150e <LL_SPI_IsActiveFlag_TXE+0x1a>
 800150c:	2300      	movs	r3, #0
}
 800150e:	4618      	mov	r0, r3
 8001510:	370c      	adds	r7, #12
 8001512:	46bd      	mov	sp, r7
 8001514:	f85d 7b04 	ldr.w	r7, [sp], #4
 8001518:	4770      	bx	lr

0800151a <LL_SPI_IsActiveFlag_BSY>:
{
 800151a:	b480      	push	{r7}
 800151c:	b083      	sub	sp, #12
 800151e:	af00      	add	r7, sp, #0
 8001520:	6078      	str	r0, [r7, #4]
  return ((READ_BIT(SPIx->SR, SPI_SR_BSY) == (SPI_SR_BSY)) ? 1UL : 0UL);
 8001522:	687b      	ldr	r3, [r7, #4]
 8001524:	689b      	ldr	r3, [r3, #8]
 8001526:	f003 0380 	and.w	r3, r3, #128	; 0x80
 800152a:	2b80      	cmp	r3, #128	; 0x80
 800152c:	d101      	bne.n	8001532 <LL_SPI_IsActiveFlag_BSY+0x18>
 800152e:	2301      	movs	r3, #1
 8001530:	e000      	b.n	8001534 <LL_SPI_IsActiveFlag_BSY+0x1a>
 8001532:	2300      	movs	r3, #0
}
 8001534:	4618      	mov	r0, r3
 8001536:	370c      	adds	r7, #12
 8001538:	46bd      	mov	sp, r7
 800153a:	f85d 7b04 	ldr.w	r7, [sp], #4
 800153e:	4770      	bx	lr

08001540 <LL_SPI_GetTxFIFOLevel>:
{
 8001540:	b480      	push	{r7}
 8001542:	b083      	sub	sp, #12
 8001544:	af00      	add	r7, sp, #0
 8001546:	6078      	str	r0, [r7, #4]
  return (uint32_t)(READ_BIT(SPIx->SR, SPI_SR_FTLVL));
 8001548:	687b      	ldr	r3, [r7, #4]
 800154a:	689b      	ldr	r3, [r3, #8]
 800154c:	f403 53c0 	and.w	r3, r3, #6144	; 0x1800
}
 8001550:	4618      	mov	r0, r3
 8001552:	370c      	adds	r7, #12
 8001554:	46bd      	mov	sp, r7
 8001556:	f85d 7b04 	ldr.w	r7, [sp], #4
 800155a:	4770      	bx	lr

0800155c <LL_SPI_ReceiveData8>:
  * @rmtoll DR           DR            LL_SPI_ReceiveData8
  * @param  SPIx SPI Instance
  * @retval RxData Value between Min_Data=0x00 and Max_Data=0xFF
  */
__STATIC_INLINE uint8_t LL_SPI_ReceiveData8(SPI_TypeDef *SPIx)
{
 800155c:	b480      	push	{r7}
 800155e:	b083      	sub	sp, #12
 8001560:	af00      	add	r7, sp, #0
 8001562:	6078      	str	r0, [r7, #4]
  return (*((__IO uint8_t *)&SPIx->DR));
 8001564:	687b      	ldr	r3, [r7, #4]
 8001566:	330c      	adds	r3, #12
 8001568:	781b      	ldrb	r3, [r3, #0]
 800156a:	b2db      	uxtb	r3, r3
}
 800156c:	4618      	mov	r0, r3
 800156e:	370c      	adds	r7, #12
 8001570:	46bd      	mov	sp, r7
 8001572:	f85d 7b04 	ldr.w	r7, [sp], #4
 8001576:	4770      	bx	lr

08001578 <LL_SPI_TransmitData8>:
  * @param  SPIx SPI Instance
  * @param  TxData Value between Min_Data=0x00 and Max_Data=0xFF
  * @retval None
  */
__STATIC_INLINE void LL_SPI_TransmitData8(SPI_TypeDef *SPIx, uint8_t TxData)
{
 8001578:	b480      	push	{r7}
 800157a:	b085      	sub	sp, #20
 800157c:	af00      	add	r7, sp, #0
 800157e:	6078      	str	r0, [r7, #4]
 8001580:	460b      	mov	r3, r1
 8001582:	70fb      	strb	r3, [r7, #3]
#if defined (__GNUC__)
  __IO uint8_t *spidr = ((__IO uint8_t *)&SPIx->DR);
 8001584:	687b      	ldr	r3, [r7, #4]
 8001586:	330c      	adds	r3, #12
 8001588:	60fb      	str	r3, [r7, #12]
  *spidr = TxData;
 800158a:	68fb      	ldr	r3, [r7, #12]
 800158c:	78fa      	ldrb	r2, [r7, #3]
 800158e:	701a      	strb	r2, [r3, #0]
#else
  *((__IO uint8_t *)&SPIx->DR) = TxData;
#endif /* __GNUC__ */
}
 8001590:	bf00      	nop
 8001592:	3714      	adds	r7, #20
 8001594:	46bd      	mov	sp, r7
 8001596:	f85d 7b04 	ldr.w	r7, [sp], #4
 800159a:	4770      	bx	lr

0800159c <MX_SPI3_Init>:

/* USER CODE END 0 */

/* SPI3 init function */
void MX_SPI3_Init(void)
{
 800159c:	b580      	push	{r7, lr}
 800159e:	b090      	sub	sp, #64	; 0x40
 80015a0:	af00      	add	r7, sp, #0

  /* USER CODE BEGIN SPI3_Init 0 */

  /* USER CODE END SPI3_Init 0 */

  LL_SPI_InitTypeDef SPI_InitStruct = {0};
 80015a2:	f107 0318 	add.w	r3, r7, #24
 80015a6:	2228      	movs	r2, #40	; 0x28
 80015a8:	2100      	movs	r1, #0
 80015aa:	4618      	mov	r0, r3
 80015ac:	f000 ffda 	bl	8002564 <memset>

  LL_GPIO_InitTypeDef GPIO_InitStruct = {0};
 80015b0:	463b      	mov	r3, r7
 80015b2:	2200      	movs	r2, #0
 80015b4:	601a      	str	r2, [r3, #0]
 80015b6:	605a      	str	r2, [r3, #4]
 80015b8:	609a      	str	r2, [r3, #8]
 80015ba:	60da      	str	r2, [r3, #12]
 80015bc:	611a      	str	r2, [r3, #16]
 80015be:	615a      	str	r2, [r3, #20]

  /* Peripheral clock enable */
  LL_APB1_GRP1_EnableClock(LL_APB1_GRP1_PERIPH_SPI3);
 80015c0:	f44f 4000 	mov.w	r0, #32768	; 0x8000
 80015c4:	f7ff ff28 	bl	8001418 <LL_APB1_GRP1_EnableClock>

  LL_AHB2_GRP1_EnableClock(LL_AHB2_GRP1_PERIPH_GPIOC);
 80015c8:	2004      	movs	r0, #4
 80015ca:	f7ff ff0d 	bl	80013e8 <LL_AHB2_GRP1_EnableClock>
  /**SPI3 GPIO Configuration
  PC10   ------> SPI3_SCK
  PC11   ------> SPI3_MISO
  PC12   ------> SPI3_MOSI
  */
  GPIO_InitStruct.Pin = LL_GPIO_PIN_10|LL_GPIO_PIN_11|LL_GPIO_PIN_12;
 80015ce:	f44f 53e0 	mov.w	r3, #7168	; 0x1c00
 80015d2:	603b      	str	r3, [r7, #0]
  GPIO_InitStruct.Mode = LL_GPIO_MODE_ALTERNATE;
 80015d4:	2302      	movs	r3, #2
 80015d6:	607b      	str	r3, [r7, #4]
  GPIO_InitStruct.Speed = LL_GPIO_SPEED_FREQ_VERY_HIGH;
 80015d8:	2303      	movs	r3, #3
 80015da:	60bb      	str	r3, [r7, #8]
  GPIO_InitStruct.OutputType = LL_GPIO_OUTPUT_PUSHPULL;
 80015dc:	2300      	movs	r3, #0
 80015de:	60fb      	str	r3, [r7, #12]
  GPIO_InitStruct.Pull = LL_GPIO_PULL_NO;
 80015e0:	2300      	movs	r3, #0
 80015e2:	613b      	str	r3, [r7, #16]
  GPIO_InitStruct.Alternate = LL_GPIO_AF_6;
 80015e4:	2306      	movs	r3, #6
 80015e6:	617b      	str	r3, [r7, #20]
  LL_GPIO_Init(GPIOC, &GPIO_InitStruct);
 80015e8:	463b      	mov	r3, r7
 80015ea:	4619      	mov	r1, r3
 80015ec:	483d      	ldr	r0, [pc, #244]	; (80016e4 <MX_SPI3_Init+0x148>)
 80015ee:	f000 fd93 	bl	8002118 <LL_GPIO_Init>

  /* SPI3 DMA Init */

  /* SPI3_RX Init */
  LL_DMA_SetPeriphRequest(DMA2, LL_DMA_CHANNEL_1, LL_DMA_REQUEST_3);
 80015f2:	2203      	movs	r2, #3
 80015f4:	2100      	movs	r1, #0
 80015f6:	483c      	ldr	r0, [pc, #240]	; (80016e8 <MX_SPI3_Init+0x14c>)
 80015f8:	f7ff fec4 	bl	8001384 <LL_DMA_SetPeriphRequest>

  LL_DMA_SetDataTransferDirection(DMA2, LL_DMA_CHANNEL_1, LL_DMA_DIRECTION_PERIPH_TO_MEMORY);
 80015fc:	2200      	movs	r2, #0
 80015fe:	2100      	movs	r1, #0
 8001600:	4839      	ldr	r0, [pc, #228]	; (80016e8 <MX_SPI3_Init+0x14c>)
 8001602:	f7ff fdb3 	bl	800116c <LL_DMA_SetDataTransferDirection>

  LL_DMA_SetChannelPriorityLevel(DMA2, LL_DMA_CHANNEL_1, LL_DMA_PRIORITY_LOW);
 8001606:	2200      	movs	r2, #0
 8001608:	2100      	movs	r1, #0
 800160a:	4837      	ldr	r0, [pc, #220]	; (80016e8 <MX_SPI3_Init+0x14c>)
 800160c:	f7ff fe94 	bl	8001338 <LL_DMA_SetChannelPriorityLevel>

  LL_DMA_SetMode(DMA2, LL_DMA_CHANNEL_1, LL_DMA_MODE_NORMAL);
 8001610:	2200      	movs	r2, #0
 8001612:	2100      	movs	r1, #0
 8001614:	4834      	ldr	r0, [pc, #208]	; (80016e8 <MX_SPI3_Init+0x14c>)
 8001616:	f7ff fdd1 	bl	80011bc <LL_DMA_SetMode>

  LL_DMA_SetPeriphIncMode(DMA2, LL_DMA_CHANNEL_1, LL_DMA_PERIPH_NOINCREMENT);
 800161a:	2200      	movs	r2, #0
 800161c:	2100      	movs	r1, #0
 800161e:	4832      	ldr	r0, [pc, #200]	; (80016e8 <MX_SPI3_Init+0x14c>)
 8001620:	f7ff fdf2 	bl	8001208 <LL_DMA_SetPeriphIncMode>

  LL_DMA_SetMemoryIncMode(DMA2, LL_DMA_CHANNEL_1, LL_DMA_MEMORY_INCREMENT);
 8001624:	2280      	movs	r2, #128	; 0x80
 8001626:	2100      	movs	r1, #0
 8001628:	482f      	ldr	r0, [pc, #188]	; (80016e8 <MX_SPI3_Init+0x14c>)
 800162a:	f7ff fe13 	bl	8001254 <LL_DMA_SetMemoryIncMode>

  LL_DMA_SetPeriphSize(DMA2, LL_DMA_CHANNEL_1, LL_DMA_PDATAALIGN_BYTE);
 800162e:	2200      	movs	r2, #0
 8001630:	2100      	movs	r1, #0
 8001632:	482d      	ldr	r0, [pc, #180]	; (80016e8 <MX_SPI3_Init+0x14c>)
 8001634:	f7ff fe34 	bl	80012a0 <LL_DMA_SetPeriphSize>

  LL_DMA_SetMemorySize(DMA2, LL_DMA_CHANNEL_1, LL_DMA_MDATAALIGN_BYTE);
 8001638:	2200      	movs	r2, #0
 800163a:	2100      	movs	r1, #0
 800163c:	482a      	ldr	r0, [pc, #168]	; (80016e8 <MX_SPI3_Init+0x14c>)
 800163e:	f7ff fe55 	bl	80012ec <LL_DMA_SetMemorySize>

  /* SPI3_TX Init */
  LL_DMA_SetPeriphRequest(DMA2, LL_DMA_CHANNEL_2, LL_DMA_REQUEST_3);
 8001642:	2203      	movs	r2, #3
 8001644:	2101      	movs	r1, #1
 8001646:	4828      	ldr	r0, [pc, #160]	; (80016e8 <MX_SPI3_Init+0x14c>)
 8001648:	f7ff fe9c 	bl	8001384 <LL_DMA_SetPeriphRequest>

  LL_DMA_SetDataTransferDirection(DMA2, LL_DMA_CHANNEL_2, LL_DMA_DIRECTION_MEMORY_TO_PERIPH);
 800164c:	2210      	movs	r2, #16
 800164e:	2101      	movs	r1, #1
 8001650:	4825      	ldr	r0, [pc, #148]	; (80016e8 <MX_SPI3_Init+0x14c>)
 8001652:	f7ff fd8b 	bl	800116c <LL_DMA_SetDataTransferDirection>

  LL_DMA_SetChannelPriorityLevel(DMA2, LL_DMA_CHANNEL_2, LL_DMA_PRIORITY_LOW);
 8001656:	2200      	movs	r2, #0
 8001658:	2101      	movs	r1, #1
 800165a:	4823      	ldr	r0, [pc, #140]	; (80016e8 <MX_SPI3_Init+0x14c>)
 800165c:	f7ff fe6c 	bl	8001338 <LL_DMA_SetChannelPriorityLevel>

  LL_DMA_SetMode(DMA2, LL_DMA_CHANNEL_2, LL_DMA_MODE_NORMAL);
 8001660:	2200      	movs	r2, #0
 8001662:	2101      	movs	r1, #1
 8001664:	4820      	ldr	r0, [pc, #128]	; (80016e8 <MX_SPI3_Init+0x14c>)
 8001666:	f7ff fda9 	bl	80011bc <LL_DMA_SetMode>

  LL_DMA_SetPeriphIncMode(DMA2, LL_DMA_CHANNEL_2, LL_DMA_PERIPH_NOINCREMENT);
 800166a:	2200      	movs	r2, #0
 800166c:	2101      	movs	r1, #1
 800166e:	481e      	ldr	r0, [pc, #120]	; (80016e8 <MX_SPI3_Init+0x14c>)
 8001670:	f7ff fdca 	bl	8001208 <LL_DMA_SetPeriphIncMode>

  LL_DMA_SetMemoryIncMode(DMA2, LL_DMA_CHANNEL_2, LL_DMA_MEMORY_INCREMENT);
 8001674:	2280      	movs	r2, #128	; 0x80
 8001676:	2101      	movs	r1, #1
 8001678:	481b      	ldr	r0, [pc, #108]	; (80016e8 <MX_SPI3_Init+0x14c>)
 800167a:	f7ff fdeb 	bl	8001254 <LL_DMA_SetMemoryIncMode>

  LL_DMA_SetPeriphSize(DMA2, LL_DMA_CHANNEL_2, LL_DMA_PDATAALIGN_BYTE);
 800167e:	2200      	movs	r2, #0
 8001680:	2101      	movs	r1, #1
 8001682:	4819      	ldr	r0, [pc, #100]	; (80016e8 <MX_SPI3_Init+0x14c>)
 8001684:	f7ff fe0c 	bl	80012a0 <LL_DMA_SetPeriphSize>

  LL_DMA_SetMemorySize(DMA2, LL_DMA_CHANNEL_2, LL_DMA_MDATAALIGN_BYTE);
 8001688:	2200      	movs	r2, #0
 800168a:	2101      	movs	r1, #1
 800168c:	4816      	ldr	r0, [pc, #88]	; (80016e8 <MX_SPI3_Init+0x14c>)
 800168e:	f7ff fe2d 	bl	80012ec <LL_DMA_SetMemorySize>

  /* USER CODE BEGIN SPI3_Init 1 */

  /* USER CODE END SPI3_Init 1 */
  SPI_InitStruct.TransferDirection = LL_SPI_FULL_DUPLEX;
 8001692:	2300      	movs	r3, #0
 8001694:	61bb      	str	r3, [r7, #24]
  SPI_InitStruct.Mode = LL_SPI_MODE_MASTER;
 8001696:	f44f 7382 	mov.w	r3, #260	; 0x104
 800169a:	61fb      	str	r3, [r7, #28]
  SPI_InitStruct.DataWidth = LL_SPI_DATAWIDTH_8BIT;
 800169c:	f44f 63e0 	mov.w	r3, #1792	; 0x700
 80016a0:	623b      	str	r3, [r7, #32]
  SPI_InitStruct.ClockPolarity = LL_SPI_POLARITY_HIGH;
 80016a2:	2302      	movs	r3, #2
 80016a4:	627b      	str	r3, [r7, #36]	; 0x24
  SPI_InitStruct.ClockPhase = LL_SPI_PHASE_2EDGE;
 80016a6:	2301      	movs	r3, #1
 80016a8:	62bb      	str	r3, [r7, #40]	; 0x28
  SPI_InitStruct.NSS = LL_SPI_NSS_SOFT;
 80016aa:	f44f 7300 	mov.w	r3, #512	; 0x200
 80016ae:	62fb      	str	r3, [r7, #44]	; 0x2c
  SPI_InitStruct.BaudRate = LL_SPI_BAUDRATEPRESCALER_DIV32;
 80016b0:	2320      	movs	r3, #32
 80016b2:	633b      	str	r3, [r7, #48]	; 0x30
  SPI_InitStruct.BitOrder = LL_SPI_MSB_FIRST;
 80016b4:	2300      	movs	r3, #0
 80016b6:	637b      	str	r3, [r7, #52]	; 0x34
  SPI_InitStruct.CRCCalculation = LL_SPI_CRCCALCULATION_DISABLE;
 80016b8:	2300      	movs	r3, #0
 80016ba:	63bb      	str	r3, [r7, #56]	; 0x38
  SPI_InitStruct.CRCPoly = 7;
 80016bc:	2307      	movs	r3, #7
 80016be:	63fb      	str	r3, [r7, #60]	; 0x3c
  LL_SPI_Init(SPI3, &SPI_InitStruct);
 80016c0:	f107 0318 	add.w	r3, r7, #24
 80016c4:	4619      	mov	r1, r3
 80016c6:	4809      	ldr	r0, [pc, #36]	; (80016ec <MX_SPI3_Init+0x150>)
 80016c8:	f000 fdca 	bl	8002260 <LL_SPI_Init>
  LL_SPI_SetStandard(SPI3, LL_SPI_PROTOCOL_MOTOROLA);
 80016cc:	2100      	movs	r1, #0
 80016ce:	4807      	ldr	r0, [pc, #28]	; (80016ec <MX_SPI3_Init+0x150>)
 80016d0:	f7ff feda 	bl	8001488 <LL_SPI_SetStandard>
  LL_SPI_DisableNSSPulseMgt(SPI3);
 80016d4:	4805      	ldr	r0, [pc, #20]	; (80016ec <MX_SPI3_Init+0x150>)
 80016d6:	f7ff feea 	bl	80014ae <LL_SPI_DisableNSSPulseMgt>
  /* USER CODE BEGIN SPI3_Init 2 */

  /* USER CODE END SPI3_Init 2 */

}
 80016da:	bf00      	nop
 80016dc:	3740      	adds	r7, #64	; 0x40
 80016de:	46bd      	mov	sp, r7
 80016e0:	bd80      	pop	{r7, pc}
 80016e2:	bf00      	nop
 80016e4:	48000800 	.word	0x48000800
 80016e8:	40020400 	.word	0x40020400
 80016ec:	40003c00 	.word	0x40003c00

080016f0 <SPI_TransmitReceive>:

/* USER CODE BEGIN 1 */
void SPI_TransmitReceive(SPI_TypeDef *SPIx, uint8_t len, uint8_t *tx_buffer, uint8_t *rx_buffer) {
 80016f0:	b590      	push	{r4, r7, lr}
 80016f2:	b087      	sub	sp, #28
 80016f4:	af00      	add	r7, sp, #0
 80016f6:	60f8      	str	r0, [r7, #12]
 80016f8:	607a      	str	r2, [r7, #4]
 80016fa:	603b      	str	r3, [r7, #0]
 80016fc:	460b      	mov	r3, r1
 80016fe:	72fb      	strb	r3, [r7, #11]
	LL_SPI_Enable(SPIx);
 8001700:	68f8      	ldr	r0, [r7, #12]
 8001702:	f7ff fea1 	bl	8001448 <LL_SPI_Enable>

	LL_SPI_TransmitData8(SPIx, tx_buffer[0]);
 8001706:	687b      	ldr	r3, [r7, #4]
 8001708:	781b      	ldrb	r3, [r3, #0]
 800170a:	4619      	mov	r1, r3
 800170c:	68f8      	ldr	r0, [r7, #12]
 800170e:	f7ff ff33 	bl	8001578 <LL_SPI_TransmitData8>

	for (int i = 0; i < len - 1; i++) {
 8001712:	2300      	movs	r3, #0
 8001714:	617b      	str	r3, [r7, #20]
 8001716:	e021      	b.n	800175c <SPI_TransmitReceive+0x6c>
	  while ( !LL_SPI_IsActiveFlag_TXE(SPIx) ); // wait until TXE is set
 8001718:	bf00      	nop
 800171a:	68f8      	ldr	r0, [r7, #12]
 800171c:	f7ff feea 	bl	80014f4 <LL_SPI_IsActiveFlag_TXE>
 8001720:	4603      	mov	r3, r0
 8001722:	2b00      	cmp	r3, #0
 8001724:	d0f9      	beq.n	800171a <SPI_TransmitReceive+0x2a>
	  LL_SPI_TransmitData8(SPIx, tx_buffer[i + 1]);
 8001726:	697b      	ldr	r3, [r7, #20]
 8001728:	3301      	adds	r3, #1
 800172a:	687a      	ldr	r2, [r7, #4]
 800172c:	4413      	add	r3, r2
 800172e:	781b      	ldrb	r3, [r3, #0]
 8001730:	4619      	mov	r1, r3
 8001732:	68f8      	ldr	r0, [r7, #12]
 8001734:	f7ff ff20 	bl	8001578 <LL_SPI_TransmitData8>
	  while ( !LL_SPI_IsActiveFlag_RXNE(SPIx) ); // wait until RXNE is set
 8001738:	bf00      	nop
 800173a:	68f8      	ldr	r0, [r7, #12]
 800173c:	f7ff fec7 	bl	80014ce <LL_SPI_IsActiveFlag_RXNE>
 8001740:	4603      	mov	r3, r0
 8001742:	2b00      	cmp	r3, #0
 8001744:	d0f9      	beq.n	800173a <SPI_TransmitReceive+0x4a>
	  rx_buffer[i] = LL_SPI_ReceiveData8(SPIx); // read DR (clears RXNE)
 8001746:	697b      	ldr	r3, [r7, #20]
 8001748:	683a      	ldr	r2, [r7, #0]
 800174a:	18d4      	adds	r4, r2, r3
 800174c:	68f8      	ldr	r0, [r7, #12]
 800174e:	f7ff ff05 	bl	800155c <LL_SPI_ReceiveData8>
 8001752:	4603      	mov	r3, r0
 8001754:	7023      	strb	r3, [r4, #0]
	for (int i = 0; i < len - 1; i++) {
 8001756:	697b      	ldr	r3, [r7, #20]
 8001758:	3301      	adds	r3, #1
 800175a:	617b      	str	r3, [r7, #20]
 800175c:	7afb      	ldrb	r3, [r7, #11]
 800175e:	3b01      	subs	r3, #1
 8001760:	697a      	ldr	r2, [r7, #20]
 8001762:	429a      	cmp	r2, r3
 8001764:	dbd8      	blt.n	8001718 <SPI_TransmitReceive+0x28>
	}

	while ( !LL_SPI_IsActiveFlag_RXNE(SPIx) ); // wait until RXNE is set
 8001766:	bf00      	nop
 8001768:	68f8      	ldr	r0, [r7, #12]
 800176a:	f7ff feb0 	bl	80014ce <LL_SPI_IsActiveFlag_RXNE>
 800176e:	4603      	mov	r3, r0
 8001770:	2b00      	cmp	r3, #0
 8001772:	d0f9      	beq.n	8001768 <SPI_TransmitReceive+0x78>
	rx_buffer[len - 1] = LL_SPI_ReceiveData8(SPIx); // read DR (clears RXNE)
 8001774:	7afb      	ldrb	r3, [r7, #11]
 8001776:	3b01      	subs	r3, #1
 8001778:	683a      	ldr	r2, [r7, #0]
 800177a:	18d4      	adds	r4, r2, r3
 800177c:	68f8      	ldr	r0, [r7, #12]
 800177e:	f7ff feed 	bl	800155c <LL_SPI_ReceiveData8>
 8001782:	4603      	mov	r3, r0
 8001784:	7023      	strb	r3, [r4, #0]
}
 8001786:	bf00      	nop
 8001788:	371c      	adds	r7, #28
 800178a:	46bd      	mov	sp, r7
 800178c:	bd90      	pop	{r4, r7, pc}

0800178e <SPI_Disable>:

void SPI_Disable(SPI_TypeDef *SPIx) {
 800178e:	b580      	push	{r7, lr}
 8001790:	b082      	sub	sp, #8
 8001792:	af00      	add	r7, sp, #0
 8001794:	6078      	str	r0, [r7, #4]
	while (LL_SPI_GetTxFIFOLevel(SPIx) != LL_SPI_TX_FIFO_EMPTY); // wait for TX FIFO to become empty
 8001796:	bf00      	nop
 8001798:	6878      	ldr	r0, [r7, #4]
 800179a:	f7ff fed1 	bl	8001540 <LL_SPI_GetTxFIFOLevel>
 800179e:	4603      	mov	r3, r0
 80017a0:	2b00      	cmp	r3, #0
 80017a2:	d1f9      	bne.n	8001798 <SPI_Disable+0xa>
	while (LL_SPI_IsActiveFlag_BSY(SPIx)); // wait for BSY flag to go low
 80017a4:	bf00      	nop
 80017a6:	6878      	ldr	r0, [r7, #4]
 80017a8:	f7ff feb7 	bl	800151a <LL_SPI_IsActiveFlag_BSY>
 80017ac:	4603      	mov	r3, r0
 80017ae:	2b00      	cmp	r3, #0
 80017b0:	d1f9      	bne.n	80017a6 <SPI_Disable+0x18>
	LL_SPI_Disable(SPIx);
 80017b2:	6878      	ldr	r0, [r7, #4]
 80017b4:	f7ff fe58 	bl	8001468 <LL_SPI_Disable>
}
 80017b8:	bf00      	nop
 80017ba:	3708      	adds	r7, #8
 80017bc:	46bd      	mov	sp, r7
 80017be:	bd80      	pop	{r7, pc}

080017c0 <LL_EXTI_IsActiveFlag_0_31>:
  *         @arg @ref LL_EXTI_LINE_31
  * @note   Please check each device line mapping for EXTI Line availability
  * @retval State of bit (1 or 0).
  */
__STATIC_INLINE uint32_t LL_EXTI_IsActiveFlag_0_31(uint32_t ExtiLine)
{
 80017c0:	b480      	push	{r7}
 80017c2:	b083      	sub	sp, #12
 80017c4:	af00      	add	r7, sp, #0
 80017c6:	6078      	str	r0, [r7, #4]
  return ((READ_BIT(EXTI->PR1, ExtiLine) == (ExtiLine)) ? 1UL : 0UL);
 80017c8:	4b07      	ldr	r3, [pc, #28]	; (80017e8 <LL_EXTI_IsActiveFlag_0_31+0x28>)
 80017ca:	695a      	ldr	r2, [r3, #20]
 80017cc:	687b      	ldr	r3, [r7, #4]
 80017ce:	4013      	ands	r3, r2
 80017d0:	687a      	ldr	r2, [r7, #4]
 80017d2:	429a      	cmp	r2, r3
 80017d4:	d101      	bne.n	80017da <LL_EXTI_IsActiveFlag_0_31+0x1a>
 80017d6:	2301      	movs	r3, #1
 80017d8:	e000      	b.n	80017dc <LL_EXTI_IsActiveFlag_0_31+0x1c>
 80017da:	2300      	movs	r3, #0
}
 80017dc:	4618      	mov	r0, r3
 80017de:	370c      	adds	r7, #12
 80017e0:	46bd      	mov	sp, r7
 80017e2:	f85d 7b04 	ldr.w	r7, [sp], #4
 80017e6:	4770      	bx	lr
 80017e8:	40010400 	.word	0x40010400

080017ec <LL_EXTI_ClearFlag_0_31>:
  *         @arg @ref LL_EXTI_LINE_31
  * @note   Please check each device line mapping for EXTI Line availability
  * @retval None
  */
__STATIC_INLINE void LL_EXTI_ClearFlag_0_31(uint32_t ExtiLine)
{
 80017ec:	b480      	push	{r7}
 80017ee:	b083      	sub	sp, #12
 80017f0:	af00      	add	r7, sp, #0
 80017f2:	6078      	str	r0, [r7, #4]
  WRITE_REG(EXTI->PR1, ExtiLine);
 80017f4:	4a04      	ldr	r2, [pc, #16]	; (8001808 <LL_EXTI_ClearFlag_0_31+0x1c>)
 80017f6:	687b      	ldr	r3, [r7, #4]
 80017f8:	6153      	str	r3, [r2, #20]
}
 80017fa:	bf00      	nop
 80017fc:	370c      	adds	r7, #12
 80017fe:	46bd      	mov	sp, r7
 8001800:	f85d 7b04 	ldr.w	r7, [sp], #4
 8001804:	4770      	bx	lr
 8001806:	bf00      	nop
 8001808:	40010400 	.word	0x40010400

0800180c <NMI_Handler>:
/******************************************************************************/
/**
  * @brief This function handles Non maskable interrupt.
  */
void NMI_Handler(void)
{
 800180c:	b480      	push	{r7}
 800180e:	af00      	add	r7, sp, #0
  /* USER CODE BEGIN NonMaskableInt_IRQn 0 */

  /* USER CODE END NonMaskableInt_IRQn 0 */
  /* USER CODE BEGIN NonMaskableInt_IRQn 1 */
  while (1)
 8001810:	e7fe      	b.n	8001810 <NMI_Handler+0x4>

08001812 <HardFault_Handler>:

/**
  * @brief This function handles Hard fault interrupt.
  */
void HardFault_Handler(void)
{
 8001812:	b480      	push	{r7}
 8001814:	af00      	add	r7, sp, #0
  /* USER CODE BEGIN HardFault_IRQn 0 */

  /* USER CODE END HardFault_IRQn 0 */
  while (1)
 8001816:	e7fe      	b.n	8001816 <HardFault_Handler+0x4>

08001818 <MemManage_Handler>:

/**
  * @brief This function handles Memory management fault.
  */
void MemManage_Handler(void)
{
 8001818:	b480      	push	{r7}
 800181a:	af00      	add	r7, sp, #0
  /* USER CODE BEGIN MemoryManagement_IRQn 0 */

  /* USER CODE END MemoryManagement_IRQn 0 */
  while (1)
 800181c:	e7fe      	b.n	800181c <MemManage_Handler+0x4>

0800181e <BusFault_Handler>:

/**
  * @brief This function handles Prefetch fault, memory access fault.
  */
void BusFault_Handler(void)
{
 800181e:	b480      	push	{r7}
 8001820:	af00      	add	r7, sp, #0
  /* USER CODE BEGIN BusFault_IRQn 0 */

  /* USER CODE END BusFault_IRQn 0 */
  while (1)
 8001822:	e7fe      	b.n	8001822 <BusFault_Handler+0x4>

08001824 <UsageFault_Handler>:

/**
  * @brief This function handles Undefined instruction or illegal state.
  */
void UsageFault_Handler(void)
{
 8001824:	b480      	push	{r7}
 8001826:	af00      	add	r7, sp, #0
  /* USER CODE BEGIN UsageFault_IRQn 0 */

  /* USER CODE END UsageFault_IRQn 0 */
  while (1)
 8001828:	e7fe      	b.n	8001828 <UsageFault_Handler+0x4>

0800182a <SVC_Handler>:

/**
  * @brief This function handles System service call via SWI instruction.
  */
void SVC_Handler(void)
{
 800182a:	b480      	push	{r7}
 800182c:	af00      	add	r7, sp, #0

  /* USER CODE END SVCall_IRQn 0 */
  /* USER CODE BEGIN SVCall_IRQn 1 */

  /* USER CODE END SVCall_IRQn 1 */
}
 800182e:	bf00      	nop
 8001830:	46bd      	mov	sp, r7
 8001832:	f85d 7b04 	ldr.w	r7, [sp], #4
 8001836:	4770      	bx	lr

08001838 <DebugMon_Handler>:

/**
  * @brief This function handles Debug monitor.
  */
void DebugMon_Handler(void)
{
 8001838:	b480      	push	{r7}
 800183a:	af00      	add	r7, sp, #0

  /* USER CODE END DebugMonitor_IRQn 0 */
  /* USER CODE BEGIN DebugMonitor_IRQn 1 */

  /* USER CODE END DebugMonitor_IRQn 1 */
}
 800183c:	bf00      	nop
 800183e:	46bd      	mov	sp, r7
 8001840:	f85d 7b04 	ldr.w	r7, [sp], #4
 8001844:	4770      	bx	lr

08001846 <PendSV_Handler>:

/**
  * @brief This function handles Pendable request for system service.
  */
void PendSV_Handler(void)
{
 8001846:	b480      	push	{r7}
 8001848:	af00      	add	r7, sp, #0

  /* USER CODE END PendSV_IRQn 0 */
  /* USER CODE BEGIN PendSV_IRQn 1 */

  /* USER CODE END PendSV_IRQn 1 */
}
 800184a:	bf00      	nop
 800184c:	46bd      	mov	sp, r7
 800184e:	f85d 7b04 	ldr.w	r7, [sp], #4
 8001852:	4770      	bx	lr

08001854 <SysTick_Handler>:

/**
  * @brief This function handles System tick timer.
  */
void SysTick_Handler(void)
{
 8001854:	b480      	push	{r7}
 8001856:	af00      	add	r7, sp, #0
  /* USER CODE END SysTick_IRQn 0 */

  /* USER CODE BEGIN SysTick_IRQn 1 */

  /* USER CODE END SysTick_IRQn 1 */
}
 8001858:	bf00      	nop
 800185a:	46bd      	mov	sp, r7
 800185c:	f85d 7b04 	ldr.w	r7, [sp], #4
 8001860:	4770      	bx	lr

08001862 <EXTI4_IRQHandler>:

/**
  * @brief This function handles EXTI line4 interrupt.
  */
void EXTI4_IRQHandler(void)
{
 8001862:	b580      	push	{r7, lr}
 8001864:	af00      	add	r7, sp, #0
  /* USER CODE BEGIN EXTI4_IRQn 0 */

  /* USER CODE END EXTI4_IRQn 0 */
  if (LL_EXTI_IsActiveFlag_0_31(LL_EXTI_LINE_4) != RESET)
 8001866:	2010      	movs	r0, #16
 8001868:	f7ff ffaa 	bl	80017c0 <LL_EXTI_IsActiveFlag_0_31>
 800186c:	4603      	mov	r3, r0
 800186e:	2b00      	cmp	r3, #0
 8001870:	d004      	beq.n	800187c <EXTI4_IRQHandler+0x1a>
  {
    LL_EXTI_ClearFlag_0_31(LL_EXTI_LINE_4);
 8001872:	2010      	movs	r0, #16
 8001874:	f7ff ffba 	bl	80017ec <LL_EXTI_ClearFlag_0_31>
    /* USER CODE BEGIN LL_EXTI_LINE_4 */
    ADC_DRDY_interrupt_handler();
 8001878:	f7fe fdd0 	bl	800041c <ADC_DRDY_interrupt_handler>
    /* USER CODE END LL_EXTI_LINE_4 */
  }
  /* USER CODE BEGIN EXTI4_IRQn 1 */

  /* USER CODE END EXTI4_IRQn 1 */
}
 800187c:	bf00      	nop
 800187e:	bd80      	pop	{r7, pc}

08001880 <DMA2_Channel1_IRQHandler>:

/**
  * @brief This function handles DMA2 channel1 global interrupt.
  */
void DMA2_Channel1_IRQHandler(void)
{
 8001880:	b580      	push	{r7, lr}
 8001882:	af00      	add	r7, sp, #0
  /* USER CODE BEGIN DMA2_Channel1_IRQn 0 */
	DMA_Transfer_Complete_RX_interrupt_handler();
 8001884:	f7fe fffe 	bl	8000884 <DMA_Transfer_Complete_RX_interrupt_handler>
  /* USER CODE END DMA2_Channel1_IRQn 0 */

  /* USER CODE BEGIN DMA2_Channel1_IRQn 1 */

  /* USER CODE END DMA2_Channel1_IRQn 1 */
}
 8001888:	bf00      	nop
 800188a:	bd80      	pop	{r7, pc}

0800188c <DMA2_Channel2_IRQHandler>:

/**
  * @brief This function handles DMA2 channel2 global interrupt.
  */
void DMA2_Channel2_IRQHandler(void)
{
 800188c:	b580      	push	{r7, lr}
 800188e:	af00      	add	r7, sp, #0
  /* USER CODE BEGIN DMA2_Channel2_IRQn 0 */
	DMA_Transfer_Complete_TX_interrupt_handler();
 8001890:	f7ff f818 	bl	80008c4 <DMA_Transfer_Complete_TX_interrupt_handler>
  /* USER CODE END DMA2_Channel2_IRQn 0 */

  /* USER CODE BEGIN DMA2_Channel2_IRQn 1 */

  /* USER CODE END DMA2_Channel2_IRQn 1 */
}
 8001894:	bf00      	nop
 8001896:	bd80      	pop	{r7, pc}

08001898 <SystemInit>:
  * @brief  Setup the microcontroller system.
  * @retval None
  */

void SystemInit(void)
{
 8001898:	b480      	push	{r7}
 800189a:	af00      	add	r7, sp, #0
  SCB->VTOR = VECT_TAB_BASE_ADDRESS | VECT_TAB_OFFSET;
#endif

  /* FPU settings ------------------------------------------------------------*/
#if (__FPU_PRESENT == 1) && (__FPU_USED == 1)
  SCB->CPACR |= ((3UL << 20U)|(3UL << 22U));  /* set CP10 and CP11 Full Access */
 800189c:	4b06      	ldr	r3, [pc, #24]	; (80018b8 <SystemInit+0x20>)
 800189e:	f8d3 3088 	ldr.w	r3, [r3, #136]	; 0x88
 80018a2:	4a05      	ldr	r2, [pc, #20]	; (80018b8 <SystemInit+0x20>)
 80018a4:	f443 0370 	orr.w	r3, r3, #15728640	; 0xf00000
 80018a8:	f8c2 3088 	str.w	r3, [r2, #136]	; 0x88
#endif
}
 80018ac:	bf00      	nop
 80018ae:	46bd      	mov	sp, r7
 80018b0:	f85d 7b04 	ldr.w	r7, [sp], #4
 80018b4:	4770      	bx	lr
 80018b6:	bf00      	nop
 80018b8:	e000ed00 	.word	0xe000ed00

080018bc <LL_APB1_GRP1_EnableClock>:
{
 80018bc:	b480      	push	{r7}
 80018be:	b085      	sub	sp, #20
 80018c0:	af00      	add	r7, sp, #0
 80018c2:	6078      	str	r0, [r7, #4]
  SET_BIT(RCC->APB1ENR1, Periphs);
 80018c4:	4b08      	ldr	r3, [pc, #32]	; (80018e8 <LL_APB1_GRP1_EnableClock+0x2c>)
 80018c6:	6d9a      	ldr	r2, [r3, #88]	; 0x58
 80018c8:	4907      	ldr	r1, [pc, #28]	; (80018e8 <LL_APB1_GRP1_EnableClock+0x2c>)
 80018ca:	687b      	ldr	r3, [r7, #4]
 80018cc:	4313      	orrs	r3, r2
 80018ce:	658b      	str	r3, [r1, #88]	; 0x58
  tmpreg = READ_BIT(RCC->APB1ENR1, Periphs);
 80018d0:	4b05      	ldr	r3, [pc, #20]	; (80018e8 <LL_APB1_GRP1_EnableClock+0x2c>)
 80018d2:	6d9a      	ldr	r2, [r3, #88]	; 0x58
 80018d4:	687b      	ldr	r3, [r7, #4]
 80018d6:	4013      	ands	r3, r2
 80018d8:	60fb      	str	r3, [r7, #12]
  (void)tmpreg;
 80018da:	68fb      	ldr	r3, [r7, #12]
}
 80018dc:	bf00      	nop
 80018de:	3714      	adds	r7, #20
 80018e0:	46bd      	mov	sp, r7
 80018e2:	f85d 7b04 	ldr.w	r7, [sp], #4
 80018e6:	4770      	bx	lr
 80018e8:	40021000 	.word	0x40021000

080018ec <LL_TIM_DisableARRPreload>:
  * @rmtoll CR1          ARPE          LL_TIM_DisableARRPreload
  * @param  TIMx Timer instance
  * @retval None
  */
__STATIC_INLINE void LL_TIM_DisableARRPreload(TIM_TypeDef *TIMx)
{
 80018ec:	b480      	push	{r7}
 80018ee:	b083      	sub	sp, #12
 80018f0:	af00      	add	r7, sp, #0
 80018f2:	6078      	str	r0, [r7, #4]
  CLEAR_BIT(TIMx->CR1, TIM_CR1_ARPE);
 80018f4:	687b      	ldr	r3, [r7, #4]
 80018f6:	681b      	ldr	r3, [r3, #0]
 80018f8:	f023 0280 	bic.w	r2, r3, #128	; 0x80
 80018fc:	687b      	ldr	r3, [r7, #4]
 80018fe:	601a      	str	r2, [r3, #0]
}
 8001900:	bf00      	nop
 8001902:	370c      	adds	r7, #12
 8001904:	46bd      	mov	sp, r7
 8001906:	f85d 7b04 	ldr.w	r7, [sp], #4
 800190a:	4770      	bx	lr

0800190c <LL_TIM_SetClockSource>:
  *         @arg @ref LL_TIM_CLOCKSOURCE_EXT_MODE1
  *         @arg @ref LL_TIM_CLOCKSOURCE_EXT_MODE2
  * @retval None
  */
__STATIC_INLINE void LL_TIM_SetClockSource(TIM_TypeDef *TIMx, uint32_t ClockSource)
{
 800190c:	b480      	push	{r7}
 800190e:	b083      	sub	sp, #12
 8001910:	af00      	add	r7, sp, #0
 8001912:	6078      	str	r0, [r7, #4]
 8001914:	6039      	str	r1, [r7, #0]
  MODIFY_REG(TIMx->SMCR, TIM_SMCR_SMS | TIM_SMCR_ECE, ClockSource);
 8001916:	687b      	ldr	r3, [r7, #4]
 8001918:	689b      	ldr	r3, [r3, #8]
 800191a:	f423 33a0 	bic.w	r3, r3, #81920	; 0x14000
 800191e:	f023 0307 	bic.w	r3, r3, #7
 8001922:	683a      	ldr	r2, [r7, #0]
 8001924:	431a      	orrs	r2, r3
 8001926:	687b      	ldr	r3, [r7, #4]
 8001928:	609a      	str	r2, [r3, #8]
}
 800192a:	bf00      	nop
 800192c:	370c      	adds	r7, #12
 800192e:	46bd      	mov	sp, r7
 8001930:	f85d 7b04 	ldr.w	r7, [sp], #4
 8001934:	4770      	bx	lr

08001936 <LL_TIM_SetTriggerOutput>:
  *         @arg @ref LL_TIM_TRGO_OC3REF
  *         @arg @ref LL_TIM_TRGO_OC4REF
  * @retval None
  */
__STATIC_INLINE void LL_TIM_SetTriggerOutput(TIM_TypeDef *TIMx, uint32_t TimerSynchronization)
{
 8001936:	b480      	push	{r7}
 8001938:	b083      	sub	sp, #12
 800193a:	af00      	add	r7, sp, #0
 800193c:	6078      	str	r0, [r7, #4]
 800193e:	6039      	str	r1, [r7, #0]
  MODIFY_REG(TIMx->CR2, TIM_CR2_MMS, TimerSynchronization);
 8001940:	687b      	ldr	r3, [r7, #4]
 8001942:	685b      	ldr	r3, [r3, #4]
 8001944:	f023 0270 	bic.w	r2, r3, #112	; 0x70
 8001948:	683b      	ldr	r3, [r7, #0]
 800194a:	431a      	orrs	r2, r3
 800194c:	687b      	ldr	r3, [r7, #4]
 800194e:	605a      	str	r2, [r3, #4]
}
 8001950:	bf00      	nop
 8001952:	370c      	adds	r7, #12
 8001954:	46bd      	mov	sp, r7
 8001956:	f85d 7b04 	ldr.w	r7, [sp], #4
 800195a:	4770      	bx	lr

0800195c <LL_TIM_DisableMasterSlaveMode>:
  * @rmtoll SMCR         MSM           LL_TIM_DisableMasterSlaveMode
  * @param  TIMx Timer instance
  * @retval None
  */
__STATIC_INLINE void LL_TIM_DisableMasterSlaveMode(TIM_TypeDef *TIMx)
{
 800195c:	b480      	push	{r7}
 800195e:	b083      	sub	sp, #12
 8001960:	af00      	add	r7, sp, #0
 8001962:	6078      	str	r0, [r7, #4]
  CLEAR_BIT(TIMx->SMCR, TIM_SMCR_MSM);
 8001964:	687b      	ldr	r3, [r7, #4]
 8001966:	689b      	ldr	r3, [r3, #8]
 8001968:	f023 0280 	bic.w	r2, r3, #128	; 0x80
 800196c:	687b      	ldr	r3, [r7, #4]
 800196e:	609a      	str	r2, [r3, #8]
}
 8001970:	bf00      	nop
 8001972:	370c      	adds	r7, #12
 8001974:	46bd      	mov	sp, r7
 8001976:	f85d 7b04 	ldr.w	r7, [sp], #4
 800197a:	4770      	bx	lr

0800197c <MX_TIM2_Init>:

/* USER CODE END 0 */

/* TIM2 init function */
void MX_TIM2_Init(void)
{
 800197c:	b580      	push	{r7, lr}
 800197e:	b086      	sub	sp, #24
 8001980:	af00      	add	r7, sp, #0

  /* USER CODE BEGIN TIM2_Init 0 */

  /* USER CODE END TIM2_Init 0 */

  LL_TIM_InitTypeDef TIM_InitStruct = {0};
 8001982:	1d3b      	adds	r3, r7, #4
 8001984:	2200      	movs	r2, #0
 8001986:	601a      	str	r2, [r3, #0]
 8001988:	605a      	str	r2, [r3, #4]
 800198a:	609a      	str	r2, [r3, #8]
 800198c:	60da      	str	r2, [r3, #12]
 800198e:	611a      	str	r2, [r3, #16]

  /* Peripheral clock enable */
  LL_APB1_GRP1_EnableClock(LL_APB1_GRP1_PERIPH_TIM2);
 8001990:	2001      	movs	r0, #1
 8001992:	f7ff ff93 	bl	80018bc <LL_APB1_GRP1_EnableClock>

  /* USER CODE BEGIN TIM2_Init 1 */

  /* USER CODE END TIM2_Init 1 */
  TIM_InitStruct.Prescaler = 0;
 8001996:	2300      	movs	r3, #0
 8001998:	80bb      	strh	r3, [r7, #4]
  TIM_InitStruct.CounterMode = LL_TIM_COUNTERMODE_UP;
 800199a:	2300      	movs	r3, #0
 800199c:	60bb      	str	r3, [r7, #8]
  TIM_InitStruct.Autoreload = 16;
 800199e:	2310      	movs	r3, #16
 80019a0:	60fb      	str	r3, [r7, #12]
  TIM_InitStruct.ClockDivision = LL_TIM_CLOCKDIVISION_DIV1;
 80019a2:	2300      	movs	r3, #0
 80019a4:	613b      	str	r3, [r7, #16]
  LL_TIM_Init(TIM2, &TIM_InitStruct);
 80019a6:	1d3b      	adds	r3, r7, #4
 80019a8:	4619      	mov	r1, r3
 80019aa:	f04f 4080 	mov.w	r0, #1073741824	; 0x40000000
 80019ae:	f000 fce9 	bl	8002384 <LL_TIM_Init>
  LL_TIM_DisableARRPreload(TIM2);
 80019b2:	f04f 4080 	mov.w	r0, #1073741824	; 0x40000000
 80019b6:	f7ff ff99 	bl	80018ec <LL_TIM_DisableARRPreload>
  LL_TIM_SetClockSource(TIM2, LL_TIM_CLOCKSOURCE_INTERNAL);
 80019ba:	2100      	movs	r1, #0
 80019bc:	f04f 4080 	mov.w	r0, #1073741824	; 0x40000000
 80019c0:	f7ff ffa4 	bl	800190c <LL_TIM_SetClockSource>
  LL_TIM_SetTriggerOutput(TIM2, LL_TIM_TRGO_RESET);
 80019c4:	2100      	movs	r1, #0
 80019c6:	f04f 4080 	mov.w	r0, #1073741824	; 0x40000000
 80019ca:	f7ff ffb4 	bl	8001936 <LL_TIM_SetTriggerOutput>
  LL_TIM_DisableMasterSlaveMode(TIM2);
 80019ce:	f04f 4080 	mov.w	r0, #1073741824	; 0x40000000
 80019d2:	f7ff ffc3 	bl	800195c <LL_TIM_DisableMasterSlaveMode>
  /* USER CODE BEGIN TIM2_Init 2 */

  /* USER CODE END TIM2_Init 2 */

}
 80019d6:	bf00      	nop
 80019d8:	3718      	adds	r7, #24
 80019da:	46bd      	mov	sp, r7
 80019dc:	bd80      	pop	{r7, pc}
	...

080019e0 <Reset_Handler>:
 80019e0:	f8df d034 	ldr.w	sp, [pc, #52]	; 8001a18 <LoopForever+0x2>
 80019e4:	f7ff ff58 	bl	8001898 <SystemInit>
 80019e8:	480c      	ldr	r0, [pc, #48]	; (8001a1c <LoopForever+0x6>)
 80019ea:	490d      	ldr	r1, [pc, #52]	; (8001a20 <LoopForever+0xa>)
 80019ec:	4a0d      	ldr	r2, [pc, #52]	; (8001a24 <LoopForever+0xe>)
 80019ee:	2300      	movs	r3, #0
 80019f0:	e002      	b.n	80019f8 <LoopCopyDataInit>

080019f2 <CopyDataInit>:
 80019f2:	58d4      	ldr	r4, [r2, r3]
 80019f4:	50c4      	str	r4, [r0, r3]
 80019f6:	3304      	adds	r3, #4

080019f8 <LoopCopyDataInit>:
 80019f8:	18c4      	adds	r4, r0, r3
 80019fa:	428c      	cmp	r4, r1
 80019fc:	d3f9      	bcc.n	80019f2 <CopyDataInit>
 80019fe:	4a0a      	ldr	r2, [pc, #40]	; (8001a28 <LoopForever+0x12>)
 8001a00:	4c0a      	ldr	r4, [pc, #40]	; (8001a2c <LoopForever+0x16>)
 8001a02:	2300      	movs	r3, #0
 8001a04:	e001      	b.n	8001a0a <LoopFillZerobss>

08001a06 <FillZerobss>:
 8001a06:	6013      	str	r3, [r2, #0]
 8001a08:	3204      	adds	r2, #4

08001a0a <LoopFillZerobss>:
 8001a0a:	42a2      	cmp	r2, r4
 8001a0c:	d3fb      	bcc.n	8001a06 <FillZerobss>
 8001a0e:	f000 fd85 	bl	800251c <__libc_init_array>
 8001a12:	f7ff fb3b 	bl	800108c <main>

08001a16 <LoopForever>:
 8001a16:	e7fe      	b.n	8001a16 <LoopForever>
 8001a18:	20018000 	.word	0x20018000
 8001a1c:	20000000 	.word	0x20000000
 8001a20:	20000004 	.word	0x20000004
 8001a24:	080025ac 	.word	0x080025ac
 8001a28:	20000004 	.word	0x20000004
 8001a2c:	200000cc 	.word	0x200000cc

08001a30 <ADC1_2_IRQHandler>:
 8001a30:	e7fe      	b.n	8001a30 <ADC1_2_IRQHandler>
	...

08001a34 <LL_EXTI_EnableIT_0_31>:
{
 8001a34:	b480      	push	{r7}
 8001a36:	b083      	sub	sp, #12
 8001a38:	af00      	add	r7, sp, #0
 8001a3a:	6078      	str	r0, [r7, #4]
  SET_BIT(EXTI->IMR1, ExtiLine);
 8001a3c:	4b05      	ldr	r3, [pc, #20]	; (8001a54 <LL_EXTI_EnableIT_0_31+0x20>)
 8001a3e:	681a      	ldr	r2, [r3, #0]
 8001a40:	4904      	ldr	r1, [pc, #16]	; (8001a54 <LL_EXTI_EnableIT_0_31+0x20>)
 8001a42:	687b      	ldr	r3, [r7, #4]
 8001a44:	4313      	orrs	r3, r2
 8001a46:	600b      	str	r3, [r1, #0]
}
 8001a48:	bf00      	nop
 8001a4a:	370c      	adds	r7, #12
 8001a4c:	46bd      	mov	sp, r7
 8001a4e:	f85d 7b04 	ldr.w	r7, [sp], #4
 8001a52:	4770      	bx	lr
 8001a54:	40010400 	.word	0x40010400

08001a58 <LL_EXTI_EnableIT_32_63>:
{
 8001a58:	b480      	push	{r7}
 8001a5a:	b083      	sub	sp, #12
 8001a5c:	af00      	add	r7, sp, #0
 8001a5e:	6078      	str	r0, [r7, #4]
  SET_BIT(EXTI->IMR2, ExtiLine);
 8001a60:	4b05      	ldr	r3, [pc, #20]	; (8001a78 <LL_EXTI_EnableIT_32_63+0x20>)
 8001a62:	6a1a      	ldr	r2, [r3, #32]
 8001a64:	4904      	ldr	r1, [pc, #16]	; (8001a78 <LL_EXTI_EnableIT_32_63+0x20>)
 8001a66:	687b      	ldr	r3, [r7, #4]
 8001a68:	4313      	orrs	r3, r2
 8001a6a:	620b      	str	r3, [r1, #32]
}
 8001a6c:	bf00      	nop
 8001a6e:	370c      	adds	r7, #12
 8001a70:	46bd      	mov	sp, r7
 8001a72:	f85d 7b04 	ldr.w	r7, [sp], #4
 8001a76:	4770      	bx	lr
 8001a78:	40010400 	.word	0x40010400

08001a7c <LL_EXTI_DisableIT_0_31>:
{
 8001a7c:	b480      	push	{r7}
 8001a7e:	b083      	sub	sp, #12
 8001a80:	af00      	add	r7, sp, #0
 8001a82:	6078      	str	r0, [r7, #4]
  CLEAR_BIT(EXTI->IMR1, ExtiLine);
 8001a84:	4b06      	ldr	r3, [pc, #24]	; (8001aa0 <LL_EXTI_DisableIT_0_31+0x24>)
 8001a86:	681a      	ldr	r2, [r3, #0]
 8001a88:	687b      	ldr	r3, [r7, #4]
 8001a8a:	43db      	mvns	r3, r3
 8001a8c:	4904      	ldr	r1, [pc, #16]	; (8001aa0 <LL_EXTI_DisableIT_0_31+0x24>)
 8001a8e:	4013      	ands	r3, r2
 8001a90:	600b      	str	r3, [r1, #0]
}
 8001a92:	bf00      	nop
 8001a94:	370c      	adds	r7, #12
 8001a96:	46bd      	mov	sp, r7
 8001a98:	f85d 7b04 	ldr.w	r7, [sp], #4
 8001a9c:	4770      	bx	lr
 8001a9e:	bf00      	nop
 8001aa0:	40010400 	.word	0x40010400

08001aa4 <LL_EXTI_DisableIT_32_63>:
{
 8001aa4:	b480      	push	{r7}
 8001aa6:	b083      	sub	sp, #12
 8001aa8:	af00      	add	r7, sp, #0
 8001aaa:	6078      	str	r0, [r7, #4]
  CLEAR_BIT(EXTI->IMR2, ExtiLine);
 8001aac:	4b06      	ldr	r3, [pc, #24]	; (8001ac8 <LL_EXTI_DisableIT_32_63+0x24>)
 8001aae:	6a1a      	ldr	r2, [r3, #32]
 8001ab0:	687b      	ldr	r3, [r7, #4]
 8001ab2:	43db      	mvns	r3, r3
 8001ab4:	4904      	ldr	r1, [pc, #16]	; (8001ac8 <LL_EXTI_DisableIT_32_63+0x24>)
 8001ab6:	4013      	ands	r3, r2
 8001ab8:	620b      	str	r3, [r1, #32]
}
 8001aba:	bf00      	nop
 8001abc:	370c      	adds	r7, #12
 8001abe:	46bd      	mov	sp, r7
 8001ac0:	f85d 7b04 	ldr.w	r7, [sp], #4
 8001ac4:	4770      	bx	lr
 8001ac6:	bf00      	nop
 8001ac8:	40010400 	.word	0x40010400

08001acc <LL_EXTI_EnableEvent_0_31>:
{
 8001acc:	b480      	push	{r7}
 8001ace:	b083      	sub	sp, #12
 8001ad0:	af00      	add	r7, sp, #0
 8001ad2:	6078      	str	r0, [r7, #4]
  SET_BIT(EXTI->EMR1, ExtiLine);
 8001ad4:	4b05      	ldr	r3, [pc, #20]	; (8001aec <LL_EXTI_EnableEvent_0_31+0x20>)
 8001ad6:	685a      	ldr	r2, [r3, #4]
 8001ad8:	4904      	ldr	r1, [pc, #16]	; (8001aec <LL_EXTI_EnableEvent_0_31+0x20>)
 8001ada:	687b      	ldr	r3, [r7, #4]
 8001adc:	4313      	orrs	r3, r2
 8001ade:	604b      	str	r3, [r1, #4]
}
 8001ae0:	bf00      	nop
 8001ae2:	370c      	adds	r7, #12
 8001ae4:	46bd      	mov	sp, r7
 8001ae6:	f85d 7b04 	ldr.w	r7, [sp], #4
 8001aea:	4770      	bx	lr
 8001aec:	40010400 	.word	0x40010400

08001af0 <LL_EXTI_EnableEvent_32_63>:
{
 8001af0:	b480      	push	{r7}
 8001af2:	b083      	sub	sp, #12
 8001af4:	af00      	add	r7, sp, #0
 8001af6:	6078      	str	r0, [r7, #4]
  SET_BIT(EXTI->EMR2, ExtiLine);
 8001af8:	4b05      	ldr	r3, [pc, #20]	; (8001b10 <LL_EXTI_EnableEvent_32_63+0x20>)
 8001afa:	6a5a      	ldr	r2, [r3, #36]	; 0x24
 8001afc:	4904      	ldr	r1, [pc, #16]	; (8001b10 <LL_EXTI_EnableEvent_32_63+0x20>)
 8001afe:	687b      	ldr	r3, [r7, #4]
 8001b00:	4313      	orrs	r3, r2
 8001b02:	624b      	str	r3, [r1, #36]	; 0x24
}
 8001b04:	bf00      	nop
 8001b06:	370c      	adds	r7, #12
 8001b08:	46bd      	mov	sp, r7
 8001b0a:	f85d 7b04 	ldr.w	r7, [sp], #4
 8001b0e:	4770      	bx	lr
 8001b10:	40010400 	.word	0x40010400

08001b14 <LL_EXTI_DisableEvent_0_31>:
{
 8001b14:	b480      	push	{r7}
 8001b16:	b083      	sub	sp, #12
 8001b18:	af00      	add	r7, sp, #0
 8001b1a:	6078      	str	r0, [r7, #4]
  CLEAR_BIT(EXTI->EMR1, ExtiLine);
 8001b1c:	4b06      	ldr	r3, [pc, #24]	; (8001b38 <LL_EXTI_DisableEvent_0_31+0x24>)
 8001b1e:	685a      	ldr	r2, [r3, #4]
 8001b20:	687b      	ldr	r3, [r7, #4]
 8001b22:	43db      	mvns	r3, r3
 8001b24:	4904      	ldr	r1, [pc, #16]	; (8001b38 <LL_EXTI_DisableEvent_0_31+0x24>)
 8001b26:	4013      	ands	r3, r2
 8001b28:	604b      	str	r3, [r1, #4]
}
 8001b2a:	bf00      	nop
 8001b2c:	370c      	adds	r7, #12
 8001b2e:	46bd      	mov	sp, r7
 8001b30:	f85d 7b04 	ldr.w	r7, [sp], #4
 8001b34:	4770      	bx	lr
 8001b36:	bf00      	nop
 8001b38:	40010400 	.word	0x40010400

08001b3c <LL_EXTI_DisableEvent_32_63>:
{
 8001b3c:	b480      	push	{r7}
 8001b3e:	b083      	sub	sp, #12
 8001b40:	af00      	add	r7, sp, #0
 8001b42:	6078      	str	r0, [r7, #4]
  CLEAR_BIT(EXTI->EMR2, ExtiLine);
 8001b44:	4b06      	ldr	r3, [pc, #24]	; (8001b60 <LL_EXTI_DisableEvent_32_63+0x24>)
 8001b46:	6a5a      	ldr	r2, [r3, #36]	; 0x24
 8001b48:	687b      	ldr	r3, [r7, #4]
 8001b4a:	43db      	mvns	r3, r3
 8001b4c:	4904      	ldr	r1, [pc, #16]	; (8001b60 <LL_EXTI_DisableEvent_32_63+0x24>)
 8001b4e:	4013      	ands	r3, r2
 8001b50:	624b      	str	r3, [r1, #36]	; 0x24
}
 8001b52:	bf00      	nop
 8001b54:	370c      	adds	r7, #12
 8001b56:	46bd      	mov	sp, r7
 8001b58:	f85d 7b04 	ldr.w	r7, [sp], #4
 8001b5c:	4770      	bx	lr
 8001b5e:	bf00      	nop
 8001b60:	40010400 	.word	0x40010400

08001b64 <LL_EXTI_EnableRisingTrig_0_31>:
{
 8001b64:	b480      	push	{r7}
 8001b66:	b083      	sub	sp, #12
 8001b68:	af00      	add	r7, sp, #0
 8001b6a:	6078      	str	r0, [r7, #4]
  SET_BIT(EXTI->RTSR1, ExtiLine);
 8001b6c:	4b05      	ldr	r3, [pc, #20]	; (8001b84 <LL_EXTI_EnableRisingTrig_0_31+0x20>)
 8001b6e:	689a      	ldr	r2, [r3, #8]
 8001b70:	4904      	ldr	r1, [pc, #16]	; (8001b84 <LL_EXTI_EnableRisingTrig_0_31+0x20>)
 8001b72:	687b      	ldr	r3, [r7, #4]
 8001b74:	4313      	orrs	r3, r2
 8001b76:	608b      	str	r3, [r1, #8]
}
 8001b78:	bf00      	nop
 8001b7a:	370c      	adds	r7, #12
 8001b7c:	46bd      	mov	sp, r7
 8001b7e:	f85d 7b04 	ldr.w	r7, [sp], #4
 8001b82:	4770      	bx	lr
 8001b84:	40010400 	.word	0x40010400

08001b88 <LL_EXTI_EnableRisingTrig_32_63>:
{
 8001b88:	b480      	push	{r7}
 8001b8a:	b083      	sub	sp, #12
 8001b8c:	af00      	add	r7, sp, #0
 8001b8e:	6078      	str	r0, [r7, #4]
  SET_BIT(EXTI->RTSR2, ExtiLine);
 8001b90:	4b05      	ldr	r3, [pc, #20]	; (8001ba8 <LL_EXTI_EnableRisingTrig_32_63+0x20>)
 8001b92:	6a9a      	ldr	r2, [r3, #40]	; 0x28
 8001b94:	4904      	ldr	r1, [pc, #16]	; (8001ba8 <LL_EXTI_EnableRisingTrig_32_63+0x20>)
 8001b96:	687b      	ldr	r3, [r7, #4]
 8001b98:	4313      	orrs	r3, r2
 8001b9a:	628b      	str	r3, [r1, #40]	; 0x28
}
 8001b9c:	bf00      	nop
 8001b9e:	370c      	adds	r7, #12
 8001ba0:	46bd      	mov	sp, r7
 8001ba2:	f85d 7b04 	ldr.w	r7, [sp], #4
 8001ba6:	4770      	bx	lr
 8001ba8:	40010400 	.word	0x40010400

08001bac <LL_EXTI_DisableRisingTrig_0_31>:
{
 8001bac:	b480      	push	{r7}
 8001bae:	b083      	sub	sp, #12
 8001bb0:	af00      	add	r7, sp, #0
 8001bb2:	6078      	str	r0, [r7, #4]
  CLEAR_BIT(EXTI->RTSR1, ExtiLine);
 8001bb4:	4b06      	ldr	r3, [pc, #24]	; (8001bd0 <LL_EXTI_DisableRisingTrig_0_31+0x24>)
 8001bb6:	689a      	ldr	r2, [r3, #8]
 8001bb8:	687b      	ldr	r3, [r7, #4]
 8001bba:	43db      	mvns	r3, r3
 8001bbc:	4904      	ldr	r1, [pc, #16]	; (8001bd0 <LL_EXTI_DisableRisingTrig_0_31+0x24>)
 8001bbe:	4013      	ands	r3, r2
 8001bc0:	608b      	str	r3, [r1, #8]
}
 8001bc2:	bf00      	nop
 8001bc4:	370c      	adds	r7, #12
 8001bc6:	46bd      	mov	sp, r7
 8001bc8:	f85d 7b04 	ldr.w	r7, [sp], #4
 8001bcc:	4770      	bx	lr
 8001bce:	bf00      	nop
 8001bd0:	40010400 	.word	0x40010400

08001bd4 <LL_EXTI_DisableRisingTrig_32_63>:
{
 8001bd4:	b480      	push	{r7}
 8001bd6:	b083      	sub	sp, #12
 8001bd8:	af00      	add	r7, sp, #0
 8001bda:	6078      	str	r0, [r7, #4]
  CLEAR_BIT(EXTI->RTSR2, ExtiLine);
 8001bdc:	4b06      	ldr	r3, [pc, #24]	; (8001bf8 <LL_EXTI_DisableRisingTrig_32_63+0x24>)
 8001bde:	6a9a      	ldr	r2, [r3, #40]	; 0x28
 8001be0:	687b      	ldr	r3, [r7, #4]
 8001be2:	43db      	mvns	r3, r3
 8001be4:	4904      	ldr	r1, [pc, #16]	; (8001bf8 <LL_EXTI_DisableRisingTrig_32_63+0x24>)
 8001be6:	4013      	ands	r3, r2
 8001be8:	628b      	str	r3, [r1, #40]	; 0x28
}
 8001bea:	bf00      	nop
 8001bec:	370c      	adds	r7, #12
 8001bee:	46bd      	mov	sp, r7
 8001bf0:	f85d 7b04 	ldr.w	r7, [sp], #4
 8001bf4:	4770      	bx	lr
 8001bf6:	bf00      	nop
 8001bf8:	40010400 	.word	0x40010400

08001bfc <LL_EXTI_EnableFallingTrig_0_31>:
{
 8001bfc:	b480      	push	{r7}
 8001bfe:	b083      	sub	sp, #12
 8001c00:	af00      	add	r7, sp, #0
 8001c02:	6078      	str	r0, [r7, #4]
  SET_BIT(EXTI->FTSR1, ExtiLine);
 8001c04:	4b05      	ldr	r3, [pc, #20]	; (8001c1c <LL_EXTI_EnableFallingTrig_0_31+0x20>)
 8001c06:	68da      	ldr	r2, [r3, #12]
 8001c08:	4904      	ldr	r1, [pc, #16]	; (8001c1c <LL_EXTI_EnableFallingTrig_0_31+0x20>)
 8001c0a:	687b      	ldr	r3, [r7, #4]
 8001c0c:	4313      	orrs	r3, r2
 8001c0e:	60cb      	str	r3, [r1, #12]
}
 8001c10:	bf00      	nop
 8001c12:	370c      	adds	r7, #12
 8001c14:	46bd      	mov	sp, r7
 8001c16:	f85d 7b04 	ldr.w	r7, [sp], #4
 8001c1a:	4770      	bx	lr
 8001c1c:	40010400 	.word	0x40010400

08001c20 <LL_EXTI_EnableFallingTrig_32_63>:
{
 8001c20:	b480      	push	{r7}
 8001c22:	b083      	sub	sp, #12
 8001c24:	af00      	add	r7, sp, #0
 8001c26:	6078      	str	r0, [r7, #4]
  SET_BIT(EXTI->FTSR2, ExtiLine);
 8001c28:	4b05      	ldr	r3, [pc, #20]	; (8001c40 <LL_EXTI_EnableFallingTrig_32_63+0x20>)
 8001c2a:	6ada      	ldr	r2, [r3, #44]	; 0x2c
 8001c2c:	4904      	ldr	r1, [pc, #16]	; (8001c40 <LL_EXTI_EnableFallingTrig_32_63+0x20>)
 8001c2e:	687b      	ldr	r3, [r7, #4]
 8001c30:	4313      	orrs	r3, r2
 8001c32:	62cb      	str	r3, [r1, #44]	; 0x2c
}
 8001c34:	bf00      	nop
 8001c36:	370c      	adds	r7, #12
 8001c38:	46bd      	mov	sp, r7
 8001c3a:	f85d 7b04 	ldr.w	r7, [sp], #4
 8001c3e:	4770      	bx	lr
 8001c40:	40010400 	.word	0x40010400

08001c44 <LL_EXTI_DisableFallingTrig_0_31>:
{
 8001c44:	b480      	push	{r7}
 8001c46:	b083      	sub	sp, #12
 8001c48:	af00      	add	r7, sp, #0
 8001c4a:	6078      	str	r0, [r7, #4]
  CLEAR_BIT(EXTI->FTSR1, ExtiLine);
 8001c4c:	4b06      	ldr	r3, [pc, #24]	; (8001c68 <LL_EXTI_DisableFallingTrig_0_31+0x24>)
 8001c4e:	68da      	ldr	r2, [r3, #12]
 8001c50:	687b      	ldr	r3, [r7, #4]
 8001c52:	43db      	mvns	r3, r3
 8001c54:	4904      	ldr	r1, [pc, #16]	; (8001c68 <LL_EXTI_DisableFallingTrig_0_31+0x24>)
 8001c56:	4013      	ands	r3, r2
 8001c58:	60cb      	str	r3, [r1, #12]
}
 8001c5a:	bf00      	nop
 8001c5c:	370c      	adds	r7, #12
 8001c5e:	46bd      	mov	sp, r7
 8001c60:	f85d 7b04 	ldr.w	r7, [sp], #4
 8001c64:	4770      	bx	lr
 8001c66:	bf00      	nop
 8001c68:	40010400 	.word	0x40010400

08001c6c <LL_EXTI_DisableFallingTrig_32_63>:
{
 8001c6c:	b480      	push	{r7}
 8001c6e:	b083      	sub	sp, #12
 8001c70:	af00      	add	r7, sp, #0
 8001c72:	6078      	str	r0, [r7, #4]
  CLEAR_BIT(EXTI->FTSR2, ExtiLine);
 8001c74:	4b06      	ldr	r3, [pc, #24]	; (8001c90 <LL_EXTI_DisableFallingTrig_32_63+0x24>)
 8001c76:	6ada      	ldr	r2, [r3, #44]	; 0x2c
 8001c78:	687b      	ldr	r3, [r7, #4]
 8001c7a:	43db      	mvns	r3, r3
 8001c7c:	4904      	ldr	r1, [pc, #16]	; (8001c90 <LL_EXTI_DisableFallingTrig_32_63+0x24>)
 8001c7e:	4013      	ands	r3, r2
 8001c80:	62cb      	str	r3, [r1, #44]	; 0x2c
}
 8001c82:	bf00      	nop
 8001c84:	370c      	adds	r7, #12
 8001c86:	46bd      	mov	sp, r7
 8001c88:	f85d 7b04 	ldr.w	r7, [sp], #4
 8001c8c:	4770      	bx	lr
 8001c8e:	bf00      	nop
 8001c90:	40010400 	.word	0x40010400

08001c94 <LL_EXTI_Init>:
  * @retval An ErrorStatus enumeration value:
  *          - 0x00: EXTI registers are initialized
  *          - any other value : wrong configuration
  */
uint32_t LL_EXTI_Init(LL_EXTI_InitTypeDef *EXTI_InitStruct)
{
 8001c94:	b580      	push	{r7, lr}
 8001c96:	b084      	sub	sp, #16
 8001c98:	af00      	add	r7, sp, #0
 8001c9a:	6078      	str	r0, [r7, #4]
  uint32_t status = 0x00u;
 8001c9c:	2300      	movs	r3, #0
 8001c9e:	60fb      	str	r3, [r7, #12]
  assert_param(IS_LL_EXTI_LINE_32_63(EXTI_InitStruct->Line_32_63));
  assert_param(IS_FUNCTIONAL_STATE(EXTI_InitStruct->LineCommand));
  assert_param(IS_LL_EXTI_MODE(EXTI_InitStruct->Mode));

  /* ENABLE LineCommand */
  if (EXTI_InitStruct->LineCommand != DISABLE)
 8001ca0:	687b      	ldr	r3, [r7, #4]
 8001ca2:	7a1b      	ldrb	r3, [r3, #8]
 8001ca4:	2b00      	cmp	r3, #0
 8001ca6:	f000 80d1 	beq.w	8001e4c <LL_EXTI_Init+0x1b8>
  {
    assert_param(IS_LL_EXTI_TRIGGER(EXTI_InitStruct->Trigger));

    /* Configure EXTI Lines in range from 0 to 31 */
    if (EXTI_InitStruct->Line_0_31 != LL_EXTI_LINE_NONE)
 8001caa:	687b      	ldr	r3, [r7, #4]
 8001cac:	681b      	ldr	r3, [r3, #0]
 8001cae:	2b00      	cmp	r3, #0
 8001cb0:	d063      	beq.n	8001d7a <LL_EXTI_Init+0xe6>
    {
      switch (EXTI_InitStruct->Mode)
 8001cb2:	687b      	ldr	r3, [r7, #4]
 8001cb4:	7a5b      	ldrb	r3, [r3, #9]
 8001cb6:	2b02      	cmp	r3, #2
 8001cb8:	d01c      	beq.n	8001cf4 <LL_EXTI_Init+0x60>
 8001cba:	2b02      	cmp	r3, #2
 8001cbc:	dc25      	bgt.n	8001d0a <LL_EXTI_Init+0x76>
 8001cbe:	2b00      	cmp	r3, #0
 8001cc0:	d002      	beq.n	8001cc8 <LL_EXTI_Init+0x34>
 8001cc2:	2b01      	cmp	r3, #1
 8001cc4:	d00b      	beq.n	8001cde <LL_EXTI_Init+0x4a>
 8001cc6:	e020      	b.n	8001d0a <LL_EXTI_Init+0x76>
      {
        case LL_EXTI_MODE_IT:
          /* First Disable Event on provided Lines */
          LL_EXTI_DisableEvent_0_31(EXTI_InitStruct->Line_0_31);
 8001cc8:	687b      	ldr	r3, [r7, #4]
 8001cca:	681b      	ldr	r3, [r3, #0]
 8001ccc:	4618      	mov	r0, r3
 8001cce:	f7ff ff21 	bl	8001b14 <LL_EXTI_DisableEvent_0_31>
          /* Then Enable IT on provided Lines */
          LL_EXTI_EnableIT_0_31(EXTI_InitStruct->Line_0_31);
 8001cd2:	687b      	ldr	r3, [r7, #4]
 8001cd4:	681b      	ldr	r3, [r3, #0]
 8001cd6:	4618      	mov	r0, r3
 8001cd8:	f7ff feac 	bl	8001a34 <LL_EXTI_EnableIT_0_31>
          break;
 8001cdc:	e018      	b.n	8001d10 <LL_EXTI_Init+0x7c>
        case LL_EXTI_MODE_EVENT:
          /* First Disable IT on provided Lines */
          LL_EXTI_DisableIT_0_31(EXTI_InitStruct->Line_0_31);
 8001cde:	687b      	ldr	r3, [r7, #4]
 8001ce0:	681b      	ldr	r3, [r3, #0]
 8001ce2:	4618      	mov	r0, r3
 8001ce4:	f7ff feca 	bl	8001a7c <LL_EXTI_DisableIT_0_31>
          /* Then Enable Event on provided Lines */
          LL_EXTI_EnableEvent_0_31(EXTI_InitStruct->Line_0_31);
 8001ce8:	687b      	ldr	r3, [r7, #4]
 8001cea:	681b      	ldr	r3, [r3, #0]
 8001cec:	4618      	mov	r0, r3
 8001cee:	f7ff feed 	bl	8001acc <LL_EXTI_EnableEvent_0_31>
          break;
 8001cf2:	e00d      	b.n	8001d10 <LL_EXTI_Init+0x7c>
        case LL_EXTI_MODE_IT_EVENT:
          /* Directly Enable IT & Event on provided Lines */
          LL_EXTI_EnableIT_0_31(EXTI_InitStruct->Line_0_31);
 8001cf4:	687b      	ldr	r3, [r7, #4]
 8001cf6:	681b      	ldr	r3, [r3, #0]
 8001cf8:	4618      	mov	r0, r3
 8001cfa:	f7ff fe9b 	bl	8001a34 <LL_EXTI_EnableIT_0_31>
          LL_EXTI_EnableEvent_0_31(EXTI_InitStruct->Line_0_31);
 8001cfe:	687b      	ldr	r3, [r7, #4]
 8001d00:	681b      	ldr	r3, [r3, #0]
 8001d02:	4618      	mov	r0, r3
 8001d04:	f7ff fee2 	bl	8001acc <LL_EXTI_EnableEvent_0_31>
          break;
 8001d08:	e002      	b.n	8001d10 <LL_EXTI_Init+0x7c>
        default:
          status = 0x01u;
 8001d0a:	2301      	movs	r3, #1
 8001d0c:	60fb      	str	r3, [r7, #12]
          break;
 8001d0e:	bf00      	nop
      }
      if (EXTI_InitStruct->Trigger != LL_EXTI_TRIGGER_NONE)
 8001d10:	687b      	ldr	r3, [r7, #4]
 8001d12:	7a9b      	ldrb	r3, [r3, #10]
 8001d14:	2b00      	cmp	r3, #0
 8001d16:	d030      	beq.n	8001d7a <LL_EXTI_Init+0xe6>
      {
        switch (EXTI_InitStruct->Trigger)
 8001d18:	687b      	ldr	r3, [r7, #4]
 8001d1a:	7a9b      	ldrb	r3, [r3, #10]
 8001d1c:	2b03      	cmp	r3, #3
 8001d1e:	d01c      	beq.n	8001d5a <LL_EXTI_Init+0xc6>
 8001d20:	2b03      	cmp	r3, #3
 8001d22:	dc25      	bgt.n	8001d70 <LL_EXTI_Init+0xdc>
 8001d24:	2b01      	cmp	r3, #1
 8001d26:	d002      	beq.n	8001d2e <LL_EXTI_Init+0x9a>
 8001d28:	2b02      	cmp	r3, #2
 8001d2a:	d00b      	beq.n	8001d44 <LL_EXTI_Init+0xb0>
 8001d2c:	e020      	b.n	8001d70 <LL_EXTI_Init+0xdc>
        {
          case LL_EXTI_TRIGGER_RISING:
            /* First Disable Falling Trigger on provided Lines */
            LL_EXTI_DisableFallingTrig_0_31(EXTI_InitStruct->Line_0_31);
 8001d2e:	687b      	ldr	r3, [r7, #4]
 8001d30:	681b      	ldr	r3, [r3, #0]
 8001d32:	4618      	mov	r0, r3
 8001d34:	f7ff ff86 	bl	8001c44 <LL_EXTI_DisableFallingTrig_0_31>
            /* Then Enable Rising Trigger on provided Lines */
            LL_EXTI_EnableRisingTrig_0_31(EXTI_InitStruct->Line_0_31);
 8001d38:	687b      	ldr	r3, [r7, #4]
 8001d3a:	681b      	ldr	r3, [r3, #0]
 8001d3c:	4618      	mov	r0, r3
 8001d3e:	f7ff ff11 	bl	8001b64 <LL_EXTI_EnableRisingTrig_0_31>
            break;
 8001d42:	e01b      	b.n	8001d7c <LL_EXTI_Init+0xe8>
          case LL_EXTI_TRIGGER_FALLING:
            /* First Disable Rising Trigger on provided Lines */
            LL_EXTI_DisableRisingTrig_0_31(EXTI_InitStruct->Line_0_31);
 8001d44:	687b      	ldr	r3, [r7, #4]
 8001d46:	681b      	ldr	r3, [r3, #0]
 8001d48:	4618      	mov	r0, r3
 8001d4a:	f7ff ff2f 	bl	8001bac <LL_EXTI_DisableRisingTrig_0_31>
            /* Then Enable Falling Trigger on provided Lines */
            LL_EXTI_EnableFallingTrig_0_31(EXTI_InitStruct->Line_0_31);
 8001d4e:	687b      	ldr	r3, [r7, #4]
 8001d50:	681b      	ldr	r3, [r3, #0]
 8001d52:	4618      	mov	r0, r3
 8001d54:	f7ff ff52 	bl	8001bfc <LL_EXTI_EnableFallingTrig_0_31>
            break;
 8001d58:	e010      	b.n	8001d7c <LL_EXTI_Init+0xe8>
          case LL_EXTI_TRIGGER_RISING_FALLING:
            LL_EXTI_EnableRisingTrig_0_31(EXTI_InitStruct->Line_0_31);
 8001d5a:	687b      	ldr	r3, [r7, #4]
 8001d5c:	681b      	ldr	r3, [r3, #0]
 8001d5e:	4618      	mov	r0, r3
 8001d60:	f7ff ff00 	bl	8001b64 <LL_EXTI_EnableRisingTrig_0_31>
            LL_EXTI_EnableFallingTrig_0_31(EXTI_InitStruct->Line_0_31);
 8001d64:	687b      	ldr	r3, [r7, #4]
 8001d66:	681b      	ldr	r3, [r3, #0]
 8001d68:	4618      	mov	r0, r3
 8001d6a:	f7ff ff47 	bl	8001bfc <LL_EXTI_EnableFallingTrig_0_31>
            break;
 8001d6e:	e005      	b.n	8001d7c <LL_EXTI_Init+0xe8>
          default:
            status |= 0x02u;
 8001d70:	68fb      	ldr	r3, [r7, #12]
 8001d72:	f043 0302 	orr.w	r3, r3, #2
 8001d76:	60fb      	str	r3, [r7, #12]
            break;
 8001d78:	e000      	b.n	8001d7c <LL_EXTI_Init+0xe8>
        }
      }
 8001d7a:	bf00      	nop
    }
    /* Configure EXTI Lines in range from 32 to 63 */
    if (EXTI_InitStruct->Line_32_63 != LL_EXTI_LINE_NONE)
 8001d7c:	687b      	ldr	r3, [r7, #4]
 8001d7e:	685b      	ldr	r3, [r3, #4]
 8001d80:	2b00      	cmp	r3, #0
 8001d82:	d078      	beq.n	8001e76 <LL_EXTI_Init+0x1e2>
    {
      switch (EXTI_InitStruct->Mode)
 8001d84:	687b      	ldr	r3, [r7, #4]
 8001d86:	7a5b      	ldrb	r3, [r3, #9]
 8001d88:	2b02      	cmp	r3, #2
 8001d8a:	d01c      	beq.n	8001dc6 <LL_EXTI_Init+0x132>
 8001d8c:	2b02      	cmp	r3, #2
 8001d8e:	dc25      	bgt.n	8001ddc <LL_EXTI_Init+0x148>
 8001d90:	2b00      	cmp	r3, #0
 8001d92:	d002      	beq.n	8001d9a <LL_EXTI_Init+0x106>
 8001d94:	2b01      	cmp	r3, #1
 8001d96:	d00b      	beq.n	8001db0 <LL_EXTI_Init+0x11c>
 8001d98:	e020      	b.n	8001ddc <LL_EXTI_Init+0x148>
      {
        case LL_EXTI_MODE_IT:
          /* First Disable Event on provided Lines */
          LL_EXTI_DisableEvent_32_63(EXTI_InitStruct->Line_32_63);
 8001d9a:	687b      	ldr	r3, [r7, #4]
 8001d9c:	685b      	ldr	r3, [r3, #4]
 8001d9e:	4618      	mov	r0, r3
 8001da0:	f7ff fecc 	bl	8001b3c <LL_EXTI_DisableEvent_32_63>
          /* Then Enable IT on provided Lines */
          LL_EXTI_EnableIT_32_63(EXTI_InitStruct->Line_32_63);
 8001da4:	687b      	ldr	r3, [r7, #4]
 8001da6:	685b      	ldr	r3, [r3, #4]
 8001da8:	4618      	mov	r0, r3
 8001daa:	f7ff fe55 	bl	8001a58 <LL_EXTI_EnableIT_32_63>
          break;
 8001dae:	e01a      	b.n	8001de6 <LL_EXTI_Init+0x152>
        case LL_EXTI_MODE_EVENT:
          /* First Disable IT on provided Lines */
          LL_EXTI_DisableIT_32_63(EXTI_InitStruct->Line_32_63);
 8001db0:	687b      	ldr	r3, [r7, #4]
 8001db2:	685b      	ldr	r3, [r3, #4]
 8001db4:	4618      	mov	r0, r3
 8001db6:	f7ff fe75 	bl	8001aa4 <LL_EXTI_DisableIT_32_63>
          /* Then Enable Event on provided Lines */
          LL_EXTI_EnableEvent_32_63(EXTI_InitStruct->Line_32_63);
 8001dba:	687b      	ldr	r3, [r7, #4]
 8001dbc:	685b      	ldr	r3, [r3, #4]
 8001dbe:	4618      	mov	r0, r3
 8001dc0:	f7ff fe96 	bl	8001af0 <LL_EXTI_EnableEvent_32_63>
          break;
 8001dc4:	e00f      	b.n	8001de6 <LL_EXTI_Init+0x152>
        case LL_EXTI_MODE_IT_EVENT:
          /* Directly Enable IT & Event on provided Lines */
          LL_EXTI_EnableIT_32_63(EXTI_InitStruct->Line_32_63);
 8001dc6:	687b      	ldr	r3, [r7, #4]
 8001dc8:	685b      	ldr	r3, [r3, #4]
 8001dca:	4618      	mov	r0, r3
 8001dcc:	f7ff fe44 	bl	8001a58 <LL_EXTI_EnableIT_32_63>
          LL_EXTI_EnableEvent_32_63(EXTI_InitStruct->Line_32_63);
 8001dd0:	687b      	ldr	r3, [r7, #4]
 8001dd2:	685b      	ldr	r3, [r3, #4]
 8001dd4:	4618      	mov	r0, r3
 8001dd6:	f7ff fe8b 	bl	8001af0 <LL_EXTI_EnableEvent_32_63>
          break;
 8001dda:	e004      	b.n	8001de6 <LL_EXTI_Init+0x152>
        default:
          status |= 0x04u;
 8001ddc:	68fb      	ldr	r3, [r7, #12]
 8001dde:	f043 0304 	orr.w	r3, r3, #4
 8001de2:	60fb      	str	r3, [r7, #12]
          break;
 8001de4:	bf00      	nop
      }
      if (EXTI_InitStruct->Trigger != LL_EXTI_TRIGGER_NONE)
 8001de6:	687b      	ldr	r3, [r7, #4]
 8001de8:	7a9b      	ldrb	r3, [r3, #10]
 8001dea:	2b00      	cmp	r3, #0
 8001dec:	d043      	beq.n	8001e76 <LL_EXTI_Init+0x1e2>
      {
        switch (EXTI_InitStruct->Trigger)
 8001dee:	687b      	ldr	r3, [r7, #4]
 8001df0:	7a9b      	ldrb	r3, [r3, #10]
 8001df2:	2b03      	cmp	r3, #3
 8001df4:	d01c      	beq.n	8001e30 <LL_EXTI_Init+0x19c>
 8001df6:	2b03      	cmp	r3, #3
 8001df8:	dc25      	bgt.n	8001e46 <LL_EXTI_Init+0x1b2>
 8001dfa:	2b01      	cmp	r3, #1
 8001dfc:	d002      	beq.n	8001e04 <LL_EXTI_Init+0x170>
 8001dfe:	2b02      	cmp	r3, #2
 8001e00:	d00b      	beq.n	8001e1a <LL_EXTI_Init+0x186>
 8001e02:	e020      	b.n	8001e46 <LL_EXTI_Init+0x1b2>
        {
          case LL_EXTI_TRIGGER_RISING:
            /* First Disable Falling Trigger on provided Lines */
            LL_EXTI_DisableFallingTrig_32_63(EXTI_InitStruct->Line_32_63);
 8001e04:	687b      	ldr	r3, [r7, #4]
 8001e06:	685b      	ldr	r3, [r3, #4]
 8001e08:	4618      	mov	r0, r3
 8001e0a:	f7ff ff2f 	bl	8001c6c <LL_EXTI_DisableFallingTrig_32_63>
            /* Then Enable IT on provided Lines */
            LL_EXTI_EnableRisingTrig_32_63(EXTI_InitStruct->Line_32_63);
 8001e0e:	687b      	ldr	r3, [r7, #4]
 8001e10:	685b      	ldr	r3, [r3, #4]
 8001e12:	4618      	mov	r0, r3
 8001e14:	f7ff feb8 	bl	8001b88 <LL_EXTI_EnableRisingTrig_32_63>
            break;
 8001e18:	e02e      	b.n	8001e78 <LL_EXTI_Init+0x1e4>
          case LL_EXTI_TRIGGER_FALLING:
            /* First Disable Rising Trigger on provided Lines */
            LL_EXTI_DisableRisingTrig_32_63(EXTI_InitStruct->Line_32_63);
 8001e1a:	687b      	ldr	r3, [r7, #4]
 8001e1c:	685b      	ldr	r3, [r3, #4]
 8001e1e:	4618      	mov	r0, r3
 8001e20:	f7ff fed8 	bl	8001bd4 <LL_EXTI_DisableRisingTrig_32_63>
            /* Then Enable Falling Trigger on provided Lines */
            LL_EXTI_EnableFallingTrig_32_63(EXTI_InitStruct->Line_32_63);
 8001e24:	687b      	ldr	r3, [r7, #4]
 8001e26:	685b      	ldr	r3, [r3, #4]
 8001e28:	4618      	mov	r0, r3
 8001e2a:	f7ff fef9 	bl	8001c20 <LL_EXTI_EnableFallingTrig_32_63>
            break;
 8001e2e:	e023      	b.n	8001e78 <LL_EXTI_Init+0x1e4>
          case LL_EXTI_TRIGGER_RISING_FALLING:
            LL_EXTI_EnableRisingTrig_32_63(EXTI_InitStruct->Line_32_63);
 8001e30:	687b      	ldr	r3, [r7, #4]
 8001e32:	685b      	ldr	r3, [r3, #4]
 8001e34:	4618      	mov	r0, r3
 8001e36:	f7ff fea7 	bl	8001b88 <LL_EXTI_EnableRisingTrig_32_63>
            LL_EXTI_EnableFallingTrig_32_63(EXTI_InitStruct->Line_32_63);
 8001e3a:	687b      	ldr	r3, [r7, #4]
 8001e3c:	685b      	ldr	r3, [r3, #4]
 8001e3e:	4618      	mov	r0, r3
 8001e40:	f7ff feee 	bl	8001c20 <LL_EXTI_EnableFallingTrig_32_63>
            break;
 8001e44:	e018      	b.n	8001e78 <LL_EXTI_Init+0x1e4>
          default:
            status = ERROR;
 8001e46:	2301      	movs	r3, #1
 8001e48:	60fb      	str	r3, [r7, #12]
            break;
 8001e4a:	e015      	b.n	8001e78 <LL_EXTI_Init+0x1e4>
  }
  /* DISABLE LineCommand */
  else
  {
    /* De-configure EXTI Lines in range from 0 to 31 */
    LL_EXTI_DisableIT_0_31(EXTI_InitStruct->Line_0_31);
 8001e4c:	687b      	ldr	r3, [r7, #4]
 8001e4e:	681b      	ldr	r3, [r3, #0]
 8001e50:	4618      	mov	r0, r3
 8001e52:	f7ff fe13 	bl	8001a7c <LL_EXTI_DisableIT_0_31>
    LL_EXTI_DisableEvent_0_31(EXTI_InitStruct->Line_0_31);
 8001e56:	687b      	ldr	r3, [r7, #4]
 8001e58:	681b      	ldr	r3, [r3, #0]
 8001e5a:	4618      	mov	r0, r3
 8001e5c:	f7ff fe5a 	bl	8001b14 <LL_EXTI_DisableEvent_0_31>
    /* De-configure EXTI Lines in range from 32 to 63 */
    LL_EXTI_DisableIT_32_63(EXTI_InitStruct->Line_32_63);
 8001e60:	687b      	ldr	r3, [r7, #4]
 8001e62:	685b      	ldr	r3, [r3, #4]
 8001e64:	4618      	mov	r0, r3
 8001e66:	f7ff fe1d 	bl	8001aa4 <LL_EXTI_DisableIT_32_63>
    LL_EXTI_DisableEvent_32_63(EXTI_InitStruct->Line_32_63);
 8001e6a:	687b      	ldr	r3, [r7, #4]
 8001e6c:	685b      	ldr	r3, [r3, #4]
 8001e6e:	4618      	mov	r0, r3
 8001e70:	f7ff fe64 	bl	8001b3c <LL_EXTI_DisableEvent_32_63>
 8001e74:	e000      	b.n	8001e78 <LL_EXTI_Init+0x1e4>
      }
 8001e76:	bf00      	nop
  }

  return status;
 8001e78:	68fb      	ldr	r3, [r7, #12]
}
 8001e7a:	4618      	mov	r0, r3
 8001e7c:	3710      	adds	r7, #16
 8001e7e:	46bd      	mov	sp, r7
 8001e80:	bd80      	pop	{r7, pc}

08001e82 <LL_GPIO_SetPinMode>:
{
 8001e82:	b480      	push	{r7}
 8001e84:	b08b      	sub	sp, #44	; 0x2c
 8001e86:	af00      	add	r7, sp, #0
 8001e88:	60f8      	str	r0, [r7, #12]
 8001e8a:	60b9      	str	r1, [r7, #8]
 8001e8c:	607a      	str	r2, [r7, #4]
  MODIFY_REG(GPIOx->MODER, (GPIO_MODER_MODE0 << (POSITION_VAL(Pin) * 2U)), (Mode << (POSITION_VAL(Pin) * 2U)));
 8001e8e:	68fb      	ldr	r3, [r7, #12]
 8001e90:	681a      	ldr	r2, [r3, #0]
 8001e92:	68bb      	ldr	r3, [r7, #8]
 8001e94:	617b      	str	r3, [r7, #20]
   __ASM volatile ("rbit %0, %1" : "=r" (result) : "r" (value) );
 8001e96:	697b      	ldr	r3, [r7, #20]
 8001e98:	fa93 f3a3 	rbit	r3, r3
 8001e9c:	613b      	str	r3, [r7, #16]
  return result;
 8001e9e:	693b      	ldr	r3, [r7, #16]
 8001ea0:	61bb      	str	r3, [r7, #24]
  if (value == 0U)
 8001ea2:	69bb      	ldr	r3, [r7, #24]
 8001ea4:	2b00      	cmp	r3, #0
 8001ea6:	d101      	bne.n	8001eac <LL_GPIO_SetPinMode+0x2a>
    return 32U;
 8001ea8:	2320      	movs	r3, #32
 8001eaa:	e003      	b.n	8001eb4 <LL_GPIO_SetPinMode+0x32>
  return __builtin_clz(value);
 8001eac:	69bb      	ldr	r3, [r7, #24]
 8001eae:	fab3 f383 	clz	r3, r3
 8001eb2:	b2db      	uxtb	r3, r3
 8001eb4:	005b      	lsls	r3, r3, #1
 8001eb6:	2103      	movs	r1, #3
 8001eb8:	fa01 f303 	lsl.w	r3, r1, r3
 8001ebc:	43db      	mvns	r3, r3
 8001ebe:	401a      	ands	r2, r3
 8001ec0:	68bb      	ldr	r3, [r7, #8]
 8001ec2:	623b      	str	r3, [r7, #32]
   __ASM volatile ("rbit %0, %1" : "=r" (result) : "r" (value) );
 8001ec4:	6a3b      	ldr	r3, [r7, #32]
 8001ec6:	fa93 f3a3 	rbit	r3, r3
 8001eca:	61fb      	str	r3, [r7, #28]
  return result;
 8001ecc:	69fb      	ldr	r3, [r7, #28]
 8001ece:	627b      	str	r3, [r7, #36]	; 0x24
  if (value == 0U)
 8001ed0:	6a7b      	ldr	r3, [r7, #36]	; 0x24
 8001ed2:	2b00      	cmp	r3, #0
 8001ed4:	d101      	bne.n	8001eda <LL_GPIO_SetPinMode+0x58>
    return 32U;
 8001ed6:	2320      	movs	r3, #32
 8001ed8:	e003      	b.n	8001ee2 <LL_GPIO_SetPinMode+0x60>
  return __builtin_clz(value);
 8001eda:	6a7b      	ldr	r3, [r7, #36]	; 0x24
 8001edc:	fab3 f383 	clz	r3, r3
 8001ee0:	b2db      	uxtb	r3, r3
 8001ee2:	005b      	lsls	r3, r3, #1
 8001ee4:	6879      	ldr	r1, [r7, #4]
 8001ee6:	fa01 f303 	lsl.w	r3, r1, r3
 8001eea:	431a      	orrs	r2, r3
 8001eec:	68fb      	ldr	r3, [r7, #12]
 8001eee:	601a      	str	r2, [r3, #0]
}
 8001ef0:	bf00      	nop
 8001ef2:	372c      	adds	r7, #44	; 0x2c
 8001ef4:	46bd      	mov	sp, r7
 8001ef6:	f85d 7b04 	ldr.w	r7, [sp], #4
 8001efa:	4770      	bx	lr

08001efc <LL_GPIO_SetPinOutputType>:
{
 8001efc:	b480      	push	{r7}
 8001efe:	b085      	sub	sp, #20
 8001f00:	af00      	add	r7, sp, #0
 8001f02:	60f8      	str	r0, [r7, #12]
 8001f04:	60b9      	str	r1, [r7, #8]
 8001f06:	607a      	str	r2, [r7, #4]
  MODIFY_REG(GPIOx->OTYPER, PinMask, (PinMask * OutputType));
 8001f08:	68fb      	ldr	r3, [r7, #12]
 8001f0a:	685a      	ldr	r2, [r3, #4]
 8001f0c:	68bb      	ldr	r3, [r7, #8]
 8001f0e:	43db      	mvns	r3, r3
 8001f10:	401a      	ands	r2, r3
 8001f12:	68bb      	ldr	r3, [r7, #8]
 8001f14:	6879      	ldr	r1, [r7, #4]
 8001f16:	fb01 f303 	mul.w	r3, r1, r3
 8001f1a:	431a      	orrs	r2, r3
 8001f1c:	68fb      	ldr	r3, [r7, #12]
 8001f1e:	605a      	str	r2, [r3, #4]
}
 8001f20:	bf00      	nop
 8001f22:	3714      	adds	r7, #20
 8001f24:	46bd      	mov	sp, r7
 8001f26:	f85d 7b04 	ldr.w	r7, [sp], #4
 8001f2a:	4770      	bx	lr

08001f2c <LL_GPIO_SetPinSpeed>:
{
 8001f2c:	b480      	push	{r7}
 8001f2e:	b08b      	sub	sp, #44	; 0x2c
 8001f30:	af00      	add	r7, sp, #0
 8001f32:	60f8      	str	r0, [r7, #12]
 8001f34:	60b9      	str	r1, [r7, #8]
 8001f36:	607a      	str	r2, [r7, #4]
  MODIFY_REG(GPIOx->OSPEEDR, (GPIO_OSPEEDR_OSPEED0 << (POSITION_VAL(Pin) * 2U)),
 8001f38:	68fb      	ldr	r3, [r7, #12]
 8001f3a:	689a      	ldr	r2, [r3, #8]
 8001f3c:	68bb      	ldr	r3, [r7, #8]
 8001f3e:	617b      	str	r3, [r7, #20]
   __ASM volatile ("rbit %0, %1" : "=r" (result) : "r" (value) );
 8001f40:	697b      	ldr	r3, [r7, #20]
 8001f42:	fa93 f3a3 	rbit	r3, r3
 8001f46:	613b      	str	r3, [r7, #16]
  return result;
 8001f48:	693b      	ldr	r3, [r7, #16]
 8001f4a:	61bb      	str	r3, [r7, #24]
  if (value == 0U)
 8001f4c:	69bb      	ldr	r3, [r7, #24]
 8001f4e:	2b00      	cmp	r3, #0
 8001f50:	d101      	bne.n	8001f56 <LL_GPIO_SetPinSpeed+0x2a>
    return 32U;
 8001f52:	2320      	movs	r3, #32
 8001f54:	e003      	b.n	8001f5e <LL_GPIO_SetPinSpeed+0x32>
  return __builtin_clz(value);
 8001f56:	69bb      	ldr	r3, [r7, #24]
 8001f58:	fab3 f383 	clz	r3, r3
 8001f5c:	b2db      	uxtb	r3, r3
 8001f5e:	005b      	lsls	r3, r3, #1
 8001f60:	2103      	movs	r1, #3
 8001f62:	fa01 f303 	lsl.w	r3, r1, r3
 8001f66:	43db      	mvns	r3, r3
 8001f68:	401a      	ands	r2, r3
 8001f6a:	68bb      	ldr	r3, [r7, #8]
 8001f6c:	623b      	str	r3, [r7, #32]
   __ASM volatile ("rbit %0, %1" : "=r" (result) : "r" (value) );
 8001f6e:	6a3b      	ldr	r3, [r7, #32]
 8001f70:	fa93 f3a3 	rbit	r3, r3
 8001f74:	61fb      	str	r3, [r7, #28]
  return result;
 8001f76:	69fb      	ldr	r3, [r7, #28]
 8001f78:	627b      	str	r3, [r7, #36]	; 0x24
  if (value == 0U)
 8001f7a:	6a7b      	ldr	r3, [r7, #36]	; 0x24
 8001f7c:	2b00      	cmp	r3, #0
 8001f7e:	d101      	bne.n	8001f84 <LL_GPIO_SetPinSpeed+0x58>
    return 32U;
 8001f80:	2320      	movs	r3, #32
 8001f82:	e003      	b.n	8001f8c <LL_GPIO_SetPinSpeed+0x60>
  return __builtin_clz(value);
 8001f84:	6a7b      	ldr	r3, [r7, #36]	; 0x24
 8001f86:	fab3 f383 	clz	r3, r3
 8001f8a:	b2db      	uxtb	r3, r3
 8001f8c:	005b      	lsls	r3, r3, #1
 8001f8e:	6879      	ldr	r1, [r7, #4]
 8001f90:	fa01 f303 	lsl.w	r3, r1, r3
 8001f94:	431a      	orrs	r2, r3
 8001f96:	68fb      	ldr	r3, [r7, #12]
 8001f98:	609a      	str	r2, [r3, #8]
}
 8001f9a:	bf00      	nop
 8001f9c:	372c      	adds	r7, #44	; 0x2c
 8001f9e:	46bd      	mov	sp, r7
 8001fa0:	f85d 7b04 	ldr.w	r7, [sp], #4
 8001fa4:	4770      	bx	lr

08001fa6 <LL_GPIO_SetPinPull>:
{
 8001fa6:	b480      	push	{r7}
 8001fa8:	b08b      	sub	sp, #44	; 0x2c
 8001faa:	af00      	add	r7, sp, #0
 8001fac:	60f8      	str	r0, [r7, #12]
 8001fae:	60b9      	str	r1, [r7, #8]
 8001fb0:	607a      	str	r2, [r7, #4]
  MODIFY_REG(GPIOx->PUPDR, (GPIO_PUPDR_PUPD0 << (POSITION_VAL(Pin) * 2U)), (Pull << (POSITION_VAL(Pin) * 2U)));
 8001fb2:	68fb      	ldr	r3, [r7, #12]
 8001fb4:	68da      	ldr	r2, [r3, #12]
 8001fb6:	68bb      	ldr	r3, [r7, #8]
 8001fb8:	617b      	str	r3, [r7, #20]
   __ASM volatile ("rbit %0, %1" : "=r" (result) : "r" (value) );
 8001fba:	697b      	ldr	r3, [r7, #20]
 8001fbc:	fa93 f3a3 	rbit	r3, r3
 8001fc0:	613b      	str	r3, [r7, #16]
  return result;
 8001fc2:	693b      	ldr	r3, [r7, #16]
 8001fc4:	61bb      	str	r3, [r7, #24]
  if (value == 0U)
 8001fc6:	69bb      	ldr	r3, [r7, #24]
 8001fc8:	2b00      	cmp	r3, #0
 8001fca:	d101      	bne.n	8001fd0 <LL_GPIO_SetPinPull+0x2a>
    return 32U;
 8001fcc:	2320      	movs	r3, #32
 8001fce:	e003      	b.n	8001fd8 <LL_GPIO_SetPinPull+0x32>
  return __builtin_clz(value);
 8001fd0:	69bb      	ldr	r3, [r7, #24]
 8001fd2:	fab3 f383 	clz	r3, r3
 8001fd6:	b2db      	uxtb	r3, r3
 8001fd8:	005b      	lsls	r3, r3, #1
 8001fda:	2103      	movs	r1, #3
 8001fdc:	fa01 f303 	lsl.w	r3, r1, r3
 8001fe0:	43db      	mvns	r3, r3
 8001fe2:	401a      	ands	r2, r3
 8001fe4:	68bb      	ldr	r3, [r7, #8]
 8001fe6:	623b      	str	r3, [r7, #32]
   __ASM volatile ("rbit %0, %1" : "=r" (result) : "r" (value) );
 8001fe8:	6a3b      	ldr	r3, [r7, #32]
 8001fea:	fa93 f3a3 	rbit	r3, r3
 8001fee:	61fb      	str	r3, [r7, #28]
  return result;
 8001ff0:	69fb      	ldr	r3, [r7, #28]
 8001ff2:	627b      	str	r3, [r7, #36]	; 0x24
  if (value == 0U)
 8001ff4:	6a7b      	ldr	r3, [r7, #36]	; 0x24
 8001ff6:	2b00      	cmp	r3, #0
 8001ff8:	d101      	bne.n	8001ffe <LL_GPIO_SetPinPull+0x58>
    return 32U;
 8001ffa:	2320      	movs	r3, #32
 8001ffc:	e003      	b.n	8002006 <LL_GPIO_SetPinPull+0x60>
  return __builtin_clz(value);
 8001ffe:	6a7b      	ldr	r3, [r7, #36]	; 0x24
 8002000:	fab3 f383 	clz	r3, r3
 8002004:	b2db      	uxtb	r3, r3
 8002006:	005b      	lsls	r3, r3, #1
 8002008:	6879      	ldr	r1, [r7, #4]
 800200a:	fa01 f303 	lsl.w	r3, r1, r3
 800200e:	431a      	orrs	r2, r3
 8002010:	68fb      	ldr	r3, [r7, #12]
 8002012:	60da      	str	r2, [r3, #12]
}
 8002014:	bf00      	nop
 8002016:	372c      	adds	r7, #44	; 0x2c
 8002018:	46bd      	mov	sp, r7
 800201a:	f85d 7b04 	ldr.w	r7, [sp], #4
 800201e:	4770      	bx	lr

08002020 <LL_GPIO_SetAFPin_0_7>:
{
 8002020:	b480      	push	{r7}
 8002022:	b08b      	sub	sp, #44	; 0x2c
 8002024:	af00      	add	r7, sp, #0
 8002026:	60f8      	str	r0, [r7, #12]
 8002028:	60b9      	str	r1, [r7, #8]
 800202a:	607a      	str	r2, [r7, #4]
  MODIFY_REG(GPIOx->AFR[0], (GPIO_AFRL_AFSEL0 << (POSITION_VAL(Pin) * 4U)),
 800202c:	68fb      	ldr	r3, [r7, #12]
 800202e:	6a1a      	ldr	r2, [r3, #32]
 8002030:	68bb      	ldr	r3, [r7, #8]
 8002032:	617b      	str	r3, [r7, #20]
   __ASM volatile ("rbit %0, %1" : "=r" (result) : "r" (value) );
 8002034:	697b      	ldr	r3, [r7, #20]
 8002036:	fa93 f3a3 	rbit	r3, r3
 800203a:	613b      	str	r3, [r7, #16]
  return result;
 800203c:	693b      	ldr	r3, [r7, #16]
 800203e:	61bb      	str	r3, [r7, #24]
  if (value == 0U)
 8002040:	69bb      	ldr	r3, [r7, #24]
 8002042:	2b00      	cmp	r3, #0
 8002044:	d101      	bne.n	800204a <LL_GPIO_SetAFPin_0_7+0x2a>
    return 32U;
 8002046:	2320      	movs	r3, #32
 8002048:	e003      	b.n	8002052 <LL_GPIO_SetAFPin_0_7+0x32>
  return __builtin_clz(value);
 800204a:	69bb      	ldr	r3, [r7, #24]
 800204c:	fab3 f383 	clz	r3, r3
 8002050:	b2db      	uxtb	r3, r3
 8002052:	009b      	lsls	r3, r3, #2
 8002054:	210f      	movs	r1, #15
 8002056:	fa01 f303 	lsl.w	r3, r1, r3
 800205a:	43db      	mvns	r3, r3
 800205c:	401a      	ands	r2, r3
 800205e:	68bb      	ldr	r3, [r7, #8]
 8002060:	623b      	str	r3, [r7, #32]
   __ASM volatile ("rbit %0, %1" : "=r" (result) : "r" (value) );
 8002062:	6a3b      	ldr	r3, [r7, #32]
 8002064:	fa93 f3a3 	rbit	r3, r3
 8002068:	61fb      	str	r3, [r7, #28]
  return result;
 800206a:	69fb      	ldr	r3, [r7, #28]
 800206c:	627b      	str	r3, [r7, #36]	; 0x24
  if (value == 0U)
 800206e:	6a7b      	ldr	r3, [r7, #36]	; 0x24
 8002070:	2b00      	cmp	r3, #0
 8002072:	d101      	bne.n	8002078 <LL_GPIO_SetAFPin_0_7+0x58>
    return 32U;
 8002074:	2320      	movs	r3, #32
 8002076:	e003      	b.n	8002080 <LL_GPIO_SetAFPin_0_7+0x60>
  return __builtin_clz(value);
 8002078:	6a7b      	ldr	r3, [r7, #36]	; 0x24
 800207a:	fab3 f383 	clz	r3, r3
 800207e:	b2db      	uxtb	r3, r3
 8002080:	009b      	lsls	r3, r3, #2
 8002082:	6879      	ldr	r1, [r7, #4]
 8002084:	fa01 f303 	lsl.w	r3, r1, r3
 8002088:	431a      	orrs	r2, r3
 800208a:	68fb      	ldr	r3, [r7, #12]
 800208c:	621a      	str	r2, [r3, #32]
}
 800208e:	bf00      	nop
 8002090:	372c      	adds	r7, #44	; 0x2c
 8002092:	46bd      	mov	sp, r7
 8002094:	f85d 7b04 	ldr.w	r7, [sp], #4
 8002098:	4770      	bx	lr

0800209a <LL_GPIO_SetAFPin_8_15>:
{
 800209a:	b480      	push	{r7}
 800209c:	b08b      	sub	sp, #44	; 0x2c
 800209e:	af00      	add	r7, sp, #0
 80020a0:	60f8      	str	r0, [r7, #12]
 80020a2:	60b9      	str	r1, [r7, #8]
 80020a4:	607a      	str	r2, [r7, #4]
  MODIFY_REG(GPIOx->AFR[1], (GPIO_AFRH_AFSEL8 << (POSITION_VAL(Pin >> 8U) * 4U)),
 80020a6:	68fb      	ldr	r3, [r7, #12]
 80020a8:	6a5a      	ldr	r2, [r3, #36]	; 0x24
 80020aa:	68bb      	ldr	r3, [r7, #8]
 80020ac:	0a1b      	lsrs	r3, r3, #8
 80020ae:	617b      	str	r3, [r7, #20]
   __ASM volatile ("rbit %0, %1" : "=r" (result) : "r" (value) );
 80020b0:	697b      	ldr	r3, [r7, #20]
 80020b2:	fa93 f3a3 	rbit	r3, r3
 80020b6:	613b      	str	r3, [r7, #16]
  return result;
 80020b8:	693b      	ldr	r3, [r7, #16]
 80020ba:	61bb      	str	r3, [r7, #24]
  if (value == 0U)
 80020bc:	69bb      	ldr	r3, [r7, #24]
 80020be:	2b00      	cmp	r3, #0
 80020c0:	d101      	bne.n	80020c6 <LL_GPIO_SetAFPin_8_15+0x2c>
    return 32U;
 80020c2:	2320      	movs	r3, #32
 80020c4:	e003      	b.n	80020ce <LL_GPIO_SetAFPin_8_15+0x34>
  return __builtin_clz(value);
 80020c6:	69bb      	ldr	r3, [r7, #24]
 80020c8:	fab3 f383 	clz	r3, r3
 80020cc:	b2db      	uxtb	r3, r3
 80020ce:	009b      	lsls	r3, r3, #2
 80020d0:	210f      	movs	r1, #15
 80020d2:	fa01 f303 	lsl.w	r3, r1, r3
 80020d6:	43db      	mvns	r3, r3
 80020d8:	401a      	ands	r2, r3
 80020da:	68bb      	ldr	r3, [r7, #8]
 80020dc:	0a1b      	lsrs	r3, r3, #8
 80020de:	623b      	str	r3, [r7, #32]
   __ASM volatile ("rbit %0, %1" : "=r" (result) : "r" (value) );
 80020e0:	6a3b      	ldr	r3, [r7, #32]
 80020e2:	fa93 f3a3 	rbit	r3, r3
 80020e6:	61fb      	str	r3, [r7, #28]
  return result;
 80020e8:	69fb      	ldr	r3, [r7, #28]
 80020ea:	627b      	str	r3, [r7, #36]	; 0x24
  if (value == 0U)
 80020ec:	6a7b      	ldr	r3, [r7, #36]	; 0x24
 80020ee:	2b00      	cmp	r3, #0
 80020f0:	d101      	bne.n	80020f6 <LL_GPIO_SetAFPin_8_15+0x5c>
    return 32U;
 80020f2:	2320      	movs	r3, #32
 80020f4:	e003      	b.n	80020fe <LL_GPIO_SetAFPin_8_15+0x64>
  return __builtin_clz(value);
 80020f6:	6a7b      	ldr	r3, [r7, #36]	; 0x24
 80020f8:	fab3 f383 	clz	r3, r3
 80020fc:	b2db      	uxtb	r3, r3
 80020fe:	009b      	lsls	r3, r3, #2
 8002100:	6879      	ldr	r1, [r7, #4]
 8002102:	fa01 f303 	lsl.w	r3, r1, r3
 8002106:	431a      	orrs	r2, r3
 8002108:	68fb      	ldr	r3, [r7, #12]
 800210a:	625a      	str	r2, [r3, #36]	; 0x24
}
 800210c:	bf00      	nop
 800210e:	372c      	adds	r7, #44	; 0x2c
 8002110:	46bd      	mov	sp, r7
 8002112:	f85d 7b04 	ldr.w	r7, [sp], #4
 8002116:	4770      	bx	lr

08002118 <LL_GPIO_Init>:
  * @retval An ErrorStatus enumeration value:
  *          - SUCCESS: GPIO registers are initialized according to GPIO_InitStruct content
  *          - ERROR:   Not applicable
  */
ErrorStatus LL_GPIO_Init(GPIO_TypeDef *GPIOx, LL_GPIO_InitTypeDef *GPIO_InitStruct)
{
 8002118:	b580      	push	{r7, lr}
 800211a:	b088      	sub	sp, #32
 800211c:	af00      	add	r7, sp, #0
 800211e:	6078      	str	r0, [r7, #4]
 8002120:	6039      	str	r1, [r7, #0]
  assert_param(IS_LL_GPIO_MODE(GPIO_InitStruct->Mode));
  assert_param(IS_LL_GPIO_PULL(GPIO_InitStruct->Pull));

  /* ------------------------- Configure the port pins ---------------- */
  /* Initialize  pinpos on first pin set */
  pinpos = POSITION_VAL(GPIO_InitStruct->Pin);
 8002122:	683b      	ldr	r3, [r7, #0]
 8002124:	681b      	ldr	r3, [r3, #0]
 8002126:	613b      	str	r3, [r7, #16]
   __ASM volatile ("rbit %0, %1" : "=r" (result) : "r" (value) );
 8002128:	693b      	ldr	r3, [r7, #16]
 800212a:	fa93 f3a3 	rbit	r3, r3
 800212e:	60fb      	str	r3, [r7, #12]
  return result;
 8002130:	68fb      	ldr	r3, [r7, #12]
 8002132:	617b      	str	r3, [r7, #20]
  if (value == 0U)
 8002134:	697b      	ldr	r3, [r7, #20]
 8002136:	2b00      	cmp	r3, #0
 8002138:	d101      	bne.n	800213e <LL_GPIO_Init+0x26>
    return 32U;
 800213a:	2320      	movs	r3, #32
 800213c:	e003      	b.n	8002146 <LL_GPIO_Init+0x2e>
  return __builtin_clz(value);
 800213e:	697b      	ldr	r3, [r7, #20]
 8002140:	fab3 f383 	clz	r3, r3
 8002144:	b2db      	uxtb	r3, r3
 8002146:	61fb      	str	r3, [r7, #28]

  /* Configure the port pins */
  while (((GPIO_InitStruct->Pin) >> pinpos) != 0x00u)
 8002148:	e048      	b.n	80021dc <LL_GPIO_Init+0xc4>
  {
    /* Get current io position */
    currentpin = (GPIO_InitStruct->Pin) & (0x00000001uL << pinpos);
 800214a:	683b      	ldr	r3, [r7, #0]
 800214c:	681a      	ldr	r2, [r3, #0]
 800214e:	2101      	movs	r1, #1
 8002150:	69fb      	ldr	r3, [r7, #28]
 8002152:	fa01 f303 	lsl.w	r3, r1, r3
 8002156:	4013      	ands	r3, r2
 8002158:	61bb      	str	r3, [r7, #24]

    if (currentpin != 0x00u)
 800215a:	69bb      	ldr	r3, [r7, #24]
 800215c:	2b00      	cmp	r3, #0
 800215e:	d03a      	beq.n	80021d6 <LL_GPIO_Init+0xbe>
    {
      if ((GPIO_InitStruct->Mode == LL_GPIO_MODE_OUTPUT) || (GPIO_InitStruct->Mode == LL_GPIO_MODE_ALTERNATE))
 8002160:	683b      	ldr	r3, [r7, #0]
 8002162:	685b      	ldr	r3, [r3, #4]
 8002164:	2b01      	cmp	r3, #1
 8002166:	d003      	beq.n	8002170 <LL_GPIO_Init+0x58>
 8002168:	683b      	ldr	r3, [r7, #0]
 800216a:	685b      	ldr	r3, [r3, #4]
 800216c:	2b02      	cmp	r3, #2
 800216e:	d10e      	bne.n	800218e <LL_GPIO_Init+0x76>
      {
        /* Check Speed mode parameters */
        assert_param(IS_LL_GPIO_SPEED(GPIO_InitStruct->Speed));

        /* Speed mode configuration */
        LL_GPIO_SetPinSpeed(GPIOx, currentpin, GPIO_InitStruct->Speed);
 8002170:	683b      	ldr	r3, [r7, #0]
 8002172:	689b      	ldr	r3, [r3, #8]
 8002174:	461a      	mov	r2, r3
 8002176:	69b9      	ldr	r1, [r7, #24]
 8002178:	6878      	ldr	r0, [r7, #4]
 800217a:	f7ff fed7 	bl	8001f2c <LL_GPIO_SetPinSpeed>

        /* Check Output mode parameters */
        assert_param(IS_LL_GPIO_OUTPUT_TYPE(GPIO_InitStruct->OutputType));

        /* Output mode configuration*/
        LL_GPIO_SetPinOutputType(GPIOx, GPIO_InitStruct->Pin, GPIO_InitStruct->OutputType);
 800217e:	683b      	ldr	r3, [r7, #0]
 8002180:	6819      	ldr	r1, [r3, #0]
 8002182:	683b      	ldr	r3, [r7, #0]
 8002184:	68db      	ldr	r3, [r3, #12]
 8002186:	461a      	mov	r2, r3
 8002188:	6878      	ldr	r0, [r7, #4]
 800218a:	f7ff feb7 	bl	8001efc <LL_GPIO_SetPinOutputType>
      }

      /* Pull-up Pull down resistor configuration*/
      LL_GPIO_SetPinPull(GPIOx, currentpin, GPIO_InitStruct->Pull);
 800218e:	683b      	ldr	r3, [r7, #0]
 8002190:	691b      	ldr	r3, [r3, #16]
 8002192:	461a      	mov	r2, r3
 8002194:	69b9      	ldr	r1, [r7, #24]
 8002196:	6878      	ldr	r0, [r7, #4]
 8002198:	f7ff ff05 	bl	8001fa6 <LL_GPIO_SetPinPull>

      if (GPIO_InitStruct->Mode == LL_GPIO_MODE_ALTERNATE)
 800219c:	683b      	ldr	r3, [r7, #0]
 800219e:	685b      	ldr	r3, [r3, #4]
 80021a0:	2b02      	cmp	r3, #2
 80021a2:	d111      	bne.n	80021c8 <LL_GPIO_Init+0xb0>
      {
        /* Check Alternate parameter */
        assert_param(IS_LL_GPIO_ALTERNATE(GPIO_InitStruct->Alternate));

        /* Speed mode configuration */
        if (currentpin < LL_GPIO_PIN_8)
 80021a4:	69bb      	ldr	r3, [r7, #24]
 80021a6:	2bff      	cmp	r3, #255	; 0xff
 80021a8:	d807      	bhi.n	80021ba <LL_GPIO_Init+0xa2>
        {
          LL_GPIO_SetAFPin_0_7(GPIOx, currentpin, GPIO_InitStruct->Alternate);
 80021aa:	683b      	ldr	r3, [r7, #0]
 80021ac:	695b      	ldr	r3, [r3, #20]
 80021ae:	461a      	mov	r2, r3
 80021b0:	69b9      	ldr	r1, [r7, #24]
 80021b2:	6878      	ldr	r0, [r7, #4]
 80021b4:	f7ff ff34 	bl	8002020 <LL_GPIO_SetAFPin_0_7>
 80021b8:	e006      	b.n	80021c8 <LL_GPIO_Init+0xb0>
        }
        else
        {
          LL_GPIO_SetAFPin_8_15(GPIOx, currentpin, GPIO_InitStruct->Alternate);
 80021ba:	683b      	ldr	r3, [r7, #0]
 80021bc:	695b      	ldr	r3, [r3, #20]
 80021be:	461a      	mov	r2, r3
 80021c0:	69b9      	ldr	r1, [r7, #24]
 80021c2:	6878      	ldr	r0, [r7, #4]
 80021c4:	f7ff ff69 	bl	800209a <LL_GPIO_SetAFPin_8_15>
        }
      }

      /* Pin Mode configuration */
      LL_GPIO_SetPinMode(GPIOx, currentpin, GPIO_InitStruct->Mode);
 80021c8:	683b      	ldr	r3, [r7, #0]
 80021ca:	685b      	ldr	r3, [r3, #4]
 80021cc:	461a      	mov	r2, r3
 80021ce:	69b9      	ldr	r1, [r7, #24]
 80021d0:	6878      	ldr	r0, [r7, #4]
 80021d2:	f7ff fe56 	bl	8001e82 <LL_GPIO_SetPinMode>
    }
    pinpos++;
 80021d6:	69fb      	ldr	r3, [r7, #28]
 80021d8:	3301      	adds	r3, #1
 80021da:	61fb      	str	r3, [r7, #28]
  while (((GPIO_InitStruct->Pin) >> pinpos) != 0x00u)
 80021dc:	683b      	ldr	r3, [r7, #0]
 80021de:	681a      	ldr	r2, [r3, #0]
 80021e0:	69fb      	ldr	r3, [r7, #28]
 80021e2:	fa22 f303 	lsr.w	r3, r2, r3
 80021e6:	2b00      	cmp	r3, #0
 80021e8:	d1af      	bne.n	800214a <LL_GPIO_Init+0x32>
  }

  return (SUCCESS);
 80021ea:	2300      	movs	r3, #0
}
 80021ec:	4618      	mov	r0, r3
 80021ee:	3720      	adds	r7, #32
 80021f0:	46bd      	mov	sp, r7
 80021f2:	bd80      	pop	{r7, pc}

080021f4 <LL_SPI_IsEnabled>:
{
 80021f4:	b480      	push	{r7}
 80021f6:	b083      	sub	sp, #12
 80021f8:	af00      	add	r7, sp, #0
 80021fa:	6078      	str	r0, [r7, #4]
  return ((READ_BIT(SPIx->CR1, SPI_CR1_SPE) == (SPI_CR1_SPE)) ? 1UL : 0UL);
 80021fc:	687b      	ldr	r3, [r7, #4]
 80021fe:	681b      	ldr	r3, [r3, #0]
 8002200:	f003 0340 	and.w	r3, r3, #64	; 0x40
 8002204:	2b40      	cmp	r3, #64	; 0x40
 8002206:	d101      	bne.n	800220c <LL_SPI_IsEnabled+0x18>
 8002208:	2301      	movs	r3, #1
 800220a:	e000      	b.n	800220e <LL_SPI_IsEnabled+0x1a>
 800220c:	2300      	movs	r3, #0
}
 800220e:	4618      	mov	r0, r3
 8002210:	370c      	adds	r7, #12
 8002212:	46bd      	mov	sp, r7
 8002214:	f85d 7b04 	ldr.w	r7, [sp], #4
 8002218:	4770      	bx	lr

0800221a <LL_SPI_SetRxFIFOThreshold>:
{
 800221a:	b480      	push	{r7}
 800221c:	b083      	sub	sp, #12
 800221e:	af00      	add	r7, sp, #0
 8002220:	6078      	str	r0, [r7, #4]
 8002222:	6039      	str	r1, [r7, #0]
  MODIFY_REG(SPIx->CR2, SPI_CR2_FRXTH, Threshold);
 8002224:	687b      	ldr	r3, [r7, #4]
 8002226:	685b      	ldr	r3, [r3, #4]
 8002228:	f423 5280 	bic.w	r2, r3, #4096	; 0x1000
 800222c:	683b      	ldr	r3, [r7, #0]
 800222e:	431a      	orrs	r2, r3
 8002230:	687b      	ldr	r3, [r7, #4]
 8002232:	605a      	str	r2, [r3, #4]
}
 8002234:	bf00      	nop
 8002236:	370c      	adds	r7, #12
 8002238:	46bd      	mov	sp, r7
 800223a:	f85d 7b04 	ldr.w	r7, [sp], #4
 800223e:	4770      	bx	lr

08002240 <LL_SPI_SetCRCPolynomial>:
{
 8002240:	b480      	push	{r7}
 8002242:	b083      	sub	sp, #12
 8002244:	af00      	add	r7, sp, #0
 8002246:	6078      	str	r0, [r7, #4]
 8002248:	6039      	str	r1, [r7, #0]
  WRITE_REG(SPIx->CRCPR, (uint16_t)CRCPoly);
 800224a:	683b      	ldr	r3, [r7, #0]
 800224c:	b29b      	uxth	r3, r3
 800224e:	461a      	mov	r2, r3
 8002250:	687b      	ldr	r3, [r7, #4]
 8002252:	611a      	str	r2, [r3, #16]
}
 8002254:	bf00      	nop
 8002256:	370c      	adds	r7, #12
 8002258:	46bd      	mov	sp, r7
 800225a:	f85d 7b04 	ldr.w	r7, [sp], #4
 800225e:	4770      	bx	lr

08002260 <LL_SPI_Init>:
  * @param  SPIx SPI Instance
  * @param  SPI_InitStruct pointer to a @ref LL_SPI_InitTypeDef structure
  * @retval An ErrorStatus enumeration value. (Return always SUCCESS)
  */
ErrorStatus LL_SPI_Init(SPI_TypeDef *SPIx, LL_SPI_InitTypeDef *SPI_InitStruct)
{
 8002260:	b580      	push	{r7, lr}
 8002262:	b084      	sub	sp, #16
 8002264:	af00      	add	r7, sp, #0
 8002266:	6078      	str	r0, [r7, #4]
 8002268:	6039      	str	r1, [r7, #0]
  ErrorStatus status = ERROR;
 800226a:	2301      	movs	r3, #1
 800226c:	73fb      	strb	r3, [r7, #15]
  assert_param(IS_LL_SPI_NSS(SPI_InitStruct->NSS));
  assert_param(IS_LL_SPI_BAUDRATE(SPI_InitStruct->BaudRate));
  assert_param(IS_LL_SPI_BITORDER(SPI_InitStruct->BitOrder));
  assert_param(IS_LL_SPI_CRCCALCULATION(SPI_InitStruct->CRCCalculation));

  if (LL_SPI_IsEnabled(SPIx) == 0x00000000U)
 800226e:	6878      	ldr	r0, [r7, #4]
 8002270:	f7ff ffc0 	bl	80021f4 <LL_SPI_IsEnabled>
 8002274:	4603      	mov	r3, r0
 8002276:	2b00      	cmp	r3, #0
 8002278:	d145      	bne.n	8002306 <LL_SPI_Init+0xa6>
     * - NSS management:     SPI_CR1_SSM bit
     * - BaudRate prescaler: SPI_CR1_BR[2:0] bits
     * - BitOrder:           SPI_CR1_LSBFIRST bit
     * - CRCCalculation:     SPI_CR1_CRCEN bit
     */
    MODIFY_REG(SPIx->CR1,
 800227a:	687b      	ldr	r3, [r7, #4]
 800227c:	681b      	ldr	r3, [r3, #0]
 800227e:	f423 437f 	bic.w	r3, r3, #65280	; 0xff00
 8002282:	f023 03bf 	bic.w	r3, r3, #191	; 0xbf
 8002286:	683a      	ldr	r2, [r7, #0]
 8002288:	6811      	ldr	r1, [r2, #0]
 800228a:	683a      	ldr	r2, [r7, #0]
 800228c:	6852      	ldr	r2, [r2, #4]
 800228e:	4311      	orrs	r1, r2
 8002290:	683a      	ldr	r2, [r7, #0]
 8002292:	68d2      	ldr	r2, [r2, #12]
 8002294:	4311      	orrs	r1, r2
 8002296:	683a      	ldr	r2, [r7, #0]
 8002298:	6912      	ldr	r2, [r2, #16]
 800229a:	4311      	orrs	r1, r2
 800229c:	683a      	ldr	r2, [r7, #0]
 800229e:	6952      	ldr	r2, [r2, #20]
 80022a0:	4311      	orrs	r1, r2
 80022a2:	683a      	ldr	r2, [r7, #0]
 80022a4:	6992      	ldr	r2, [r2, #24]
 80022a6:	4311      	orrs	r1, r2
 80022a8:	683a      	ldr	r2, [r7, #0]
 80022aa:	69d2      	ldr	r2, [r2, #28]
 80022ac:	4311      	orrs	r1, r2
 80022ae:	683a      	ldr	r2, [r7, #0]
 80022b0:	6a12      	ldr	r2, [r2, #32]
 80022b2:	430a      	orrs	r2, r1
 80022b4:	431a      	orrs	r2, r3
 80022b6:	687b      	ldr	r3, [r7, #4]
 80022b8:	601a      	str	r2, [r3, #0]
    /*---------------------------- SPIx CR2 Configuration ------------------------
     * Configure SPIx CR2 with parameters:
     * - DataWidth:          DS[3:0] bits
     * - NSS management:     SSOE bit
     */
    MODIFY_REG(SPIx->CR2,
 80022ba:	687b      	ldr	r3, [r7, #4]
 80022bc:	685b      	ldr	r3, [r3, #4]
 80022be:	f423 6370 	bic.w	r3, r3, #3840	; 0xf00
 80022c2:	f023 0304 	bic.w	r3, r3, #4
 80022c6:	683a      	ldr	r2, [r7, #0]
 80022c8:	6891      	ldr	r1, [r2, #8]
 80022ca:	683a      	ldr	r2, [r7, #0]
 80022cc:	6952      	ldr	r2, [r2, #20]
 80022ce:	0c12      	lsrs	r2, r2, #16
 80022d0:	430a      	orrs	r2, r1
 80022d2:	431a      	orrs	r2, r3
 80022d4:	687b      	ldr	r3, [r7, #4]
 80022d6:	605a      	str	r2, [r3, #4]
               SPI_CR2_DS | SPI_CR2_SSOE,
               SPI_InitStruct->DataWidth | (SPI_InitStruct->NSS >> 16U));

    /* Set Rx FIFO to Quarter (1 Byte) in case of 8 Bits mode. No DataPacking by default */
    if (SPI_InitStruct->DataWidth < LL_SPI_DATAWIDTH_9BIT)
 80022d8:	683b      	ldr	r3, [r7, #0]
 80022da:	689b      	ldr	r3, [r3, #8]
 80022dc:	f5b3 6f00 	cmp.w	r3, #2048	; 0x800
 80022e0:	d204      	bcs.n	80022ec <LL_SPI_Init+0x8c>
    {
      LL_SPI_SetRxFIFOThreshold(SPIx, LL_SPI_RX_FIFO_TH_QUARTER);
 80022e2:	f44f 5180 	mov.w	r1, #4096	; 0x1000
 80022e6:	6878      	ldr	r0, [r7, #4]
 80022e8:	f7ff ff97 	bl	800221a <LL_SPI_SetRxFIFOThreshold>

    /*---------------------------- SPIx CRCPR Configuration ----------------------
     * Configure SPIx CRCPR with parameters:
     * - CRCPoly:            CRCPOLY[15:0] bits
     */
    if (SPI_InitStruct->CRCCalculation == LL_SPI_CRCCALCULATION_ENABLE)
 80022ec:	683b      	ldr	r3, [r7, #0]
 80022ee:	6a1b      	ldr	r3, [r3, #32]
 80022f0:	f5b3 5f00 	cmp.w	r3, #8192	; 0x2000
 80022f4:	d105      	bne.n	8002302 <LL_SPI_Init+0xa2>
    {
      assert_param(IS_LL_SPI_CRC_POLYNOMIAL(SPI_InitStruct->CRCPoly));
      LL_SPI_SetCRCPolynomial(SPIx, SPI_InitStruct->CRCPoly);
 80022f6:	683b      	ldr	r3, [r7, #0]
 80022f8:	6a5b      	ldr	r3, [r3, #36]	; 0x24
 80022fa:	4619      	mov	r1, r3
 80022fc:	6878      	ldr	r0, [r7, #4]
 80022fe:	f7ff ff9f 	bl	8002240 <LL_SPI_SetCRCPolynomial>
    }
    status = SUCCESS;
 8002302:	2300      	movs	r3, #0
 8002304:	73fb      	strb	r3, [r7, #15]
  }

  return status;
 8002306:	7bfb      	ldrb	r3, [r7, #15]
}
 8002308:	4618      	mov	r0, r3
 800230a:	3710      	adds	r7, #16
 800230c:	46bd      	mov	sp, r7
 800230e:	bd80      	pop	{r7, pc}

08002310 <LL_TIM_SetPrescaler>:
{
 8002310:	b480      	push	{r7}
 8002312:	b083      	sub	sp, #12
 8002314:	af00      	add	r7, sp, #0
 8002316:	6078      	str	r0, [r7, #4]
 8002318:	6039      	str	r1, [r7, #0]
  WRITE_REG(TIMx->PSC, Prescaler);
 800231a:	687b      	ldr	r3, [r7, #4]
 800231c:	683a      	ldr	r2, [r7, #0]
 800231e:	629a      	str	r2, [r3, #40]	; 0x28
}
 8002320:	bf00      	nop
 8002322:	370c      	adds	r7, #12
 8002324:	46bd      	mov	sp, r7
 8002326:	f85d 7b04 	ldr.w	r7, [sp], #4
 800232a:	4770      	bx	lr

0800232c <LL_TIM_SetAutoReload>:
{
 800232c:	b480      	push	{r7}
 800232e:	b083      	sub	sp, #12
 8002330:	af00      	add	r7, sp, #0
 8002332:	6078      	str	r0, [r7, #4]
 8002334:	6039      	str	r1, [r7, #0]
  WRITE_REG(TIMx->ARR, AutoReload);
 8002336:	687b      	ldr	r3, [r7, #4]
 8002338:	683a      	ldr	r2, [r7, #0]
 800233a:	62da      	str	r2, [r3, #44]	; 0x2c
}
 800233c:	bf00      	nop
 800233e:	370c      	adds	r7, #12
 8002340:	46bd      	mov	sp, r7
 8002342:	f85d 7b04 	ldr.w	r7, [sp], #4
 8002346:	4770      	bx	lr

08002348 <LL_TIM_SetRepetitionCounter>:
{
 8002348:	b480      	push	{r7}
 800234a:	b083      	sub	sp, #12
 800234c:	af00      	add	r7, sp, #0
 800234e:	6078      	str	r0, [r7, #4]
 8002350:	6039      	str	r1, [r7, #0]
  WRITE_REG(TIMx->RCR, RepetitionCounter);
 8002352:	687b      	ldr	r3, [r7, #4]
 8002354:	683a      	ldr	r2, [r7, #0]
 8002356:	631a      	str	r2, [r3, #48]	; 0x30
}
 8002358:	bf00      	nop
 800235a:	370c      	adds	r7, #12
 800235c:	46bd      	mov	sp, r7
 800235e:	f85d 7b04 	ldr.w	r7, [sp], #4
 8002362:	4770      	bx	lr

08002364 <LL_TIM_GenerateEvent_UPDATE>:
  * @rmtoll EGR          UG            LL_TIM_GenerateEvent_UPDATE
  * @param  TIMx Timer instance
  * @retval None
  */
__STATIC_INLINE void LL_TIM_GenerateEvent_UPDATE(TIM_TypeDef *TIMx)
{
 8002364:	b480      	push	{r7}
 8002366:	b083      	sub	sp, #12
 8002368:	af00      	add	r7, sp, #0
 800236a:	6078      	str	r0, [r7, #4]
  SET_BIT(TIMx->EGR, TIM_EGR_UG);
 800236c:	687b      	ldr	r3, [r7, #4]
 800236e:	695b      	ldr	r3, [r3, #20]
 8002370:	f043 0201 	orr.w	r2, r3, #1
 8002374:	687b      	ldr	r3, [r7, #4]
 8002376:	615a      	str	r2, [r3, #20]
}
 8002378:	bf00      	nop
 800237a:	370c      	adds	r7, #12
 800237c:	46bd      	mov	sp, r7
 800237e:	f85d 7b04 	ldr.w	r7, [sp], #4
 8002382:	4770      	bx	lr

08002384 <LL_TIM_Init>:
  * @retval An ErrorStatus enumeration value:
  *          - SUCCESS: TIMx registers are de-initialized
  *          - ERROR: not applicable
  */
ErrorStatus LL_TIM_Init(TIM_TypeDef *TIMx, LL_TIM_InitTypeDef *TIM_InitStruct)
{
 8002384:	b580      	push	{r7, lr}
 8002386:	b084      	sub	sp, #16
 8002388:	af00      	add	r7, sp, #0
 800238a:	6078      	str	r0, [r7, #4]
 800238c:	6039      	str	r1, [r7, #0]
  /* Check the parameters */
  assert_param(IS_TIM_INSTANCE(TIMx));
  assert_param(IS_LL_TIM_COUNTERMODE(TIM_InitStruct->CounterMode));
  assert_param(IS_LL_TIM_CLOCKDIVISION(TIM_InitStruct->ClockDivision));

  tmpcr1 = LL_TIM_ReadReg(TIMx, CR1);
 800238e:	687b      	ldr	r3, [r7, #4]
 8002390:	681b      	ldr	r3, [r3, #0]
 8002392:	60fb      	str	r3, [r7, #12]

  if (IS_TIM_COUNTER_MODE_SELECT_INSTANCE(TIMx))
 8002394:	687b      	ldr	r3, [r7, #4]
 8002396:	4a3d      	ldr	r2, [pc, #244]	; (800248c <LL_TIM_Init+0x108>)
 8002398:	4293      	cmp	r3, r2
 800239a:	d013      	beq.n	80023c4 <LL_TIM_Init+0x40>
 800239c:	687b      	ldr	r3, [r7, #4]
 800239e:	f1b3 4f80 	cmp.w	r3, #1073741824	; 0x40000000
 80023a2:	d00f      	beq.n	80023c4 <LL_TIM_Init+0x40>
 80023a4:	687b      	ldr	r3, [r7, #4]
 80023a6:	4a3a      	ldr	r2, [pc, #232]	; (8002490 <LL_TIM_Init+0x10c>)
 80023a8:	4293      	cmp	r3, r2
 80023aa:	d00b      	beq.n	80023c4 <LL_TIM_Init+0x40>
 80023ac:	687b      	ldr	r3, [r7, #4]
 80023ae:	4a39      	ldr	r2, [pc, #228]	; (8002494 <LL_TIM_Init+0x110>)
 80023b0:	4293      	cmp	r3, r2
 80023b2:	d007      	beq.n	80023c4 <LL_TIM_Init+0x40>
 80023b4:	687b      	ldr	r3, [r7, #4]
 80023b6:	4a38      	ldr	r2, [pc, #224]	; (8002498 <LL_TIM_Init+0x114>)
 80023b8:	4293      	cmp	r3, r2
 80023ba:	d003      	beq.n	80023c4 <LL_TIM_Init+0x40>
 80023bc:	687b      	ldr	r3, [r7, #4]
 80023be:	4a37      	ldr	r2, [pc, #220]	; (800249c <LL_TIM_Init+0x118>)
 80023c0:	4293      	cmp	r3, r2
 80023c2:	d106      	bne.n	80023d2 <LL_TIM_Init+0x4e>
  {
    /* Select the Counter Mode */
    MODIFY_REG(tmpcr1, (TIM_CR1_DIR | TIM_CR1_CMS), TIM_InitStruct->CounterMode);
 80023c4:	68fb      	ldr	r3, [r7, #12]
 80023c6:	f023 0270 	bic.w	r2, r3, #112	; 0x70
 80023ca:	683b      	ldr	r3, [r7, #0]
 80023cc:	685b      	ldr	r3, [r3, #4]
 80023ce:	4313      	orrs	r3, r2
 80023d0:	60fb      	str	r3, [r7, #12]
  }

  if (IS_TIM_CLOCK_DIVISION_INSTANCE(TIMx))
 80023d2:	687b      	ldr	r3, [r7, #4]
 80023d4:	4a2d      	ldr	r2, [pc, #180]	; (800248c <LL_TIM_Init+0x108>)
 80023d6:	4293      	cmp	r3, r2
 80023d8:	d01f      	beq.n	800241a <LL_TIM_Init+0x96>
 80023da:	687b      	ldr	r3, [r7, #4]
 80023dc:	f1b3 4f80 	cmp.w	r3, #1073741824	; 0x40000000
 80023e0:	d01b      	beq.n	800241a <LL_TIM_Init+0x96>
 80023e2:	687b      	ldr	r3, [r7, #4]
 80023e4:	4a2a      	ldr	r2, [pc, #168]	; (8002490 <LL_TIM_Init+0x10c>)
 80023e6:	4293      	cmp	r3, r2
 80023e8:	d017      	beq.n	800241a <LL_TIM_Init+0x96>
 80023ea:	687b      	ldr	r3, [r7, #4]
 80023ec:	4a29      	ldr	r2, [pc, #164]	; (8002494 <LL_TIM_Init+0x110>)
 80023ee:	4293      	cmp	r3, r2
 80023f0:	d013      	beq.n	800241a <LL_TIM_Init+0x96>
 80023f2:	687b      	ldr	r3, [r7, #4]
 80023f4:	4a28      	ldr	r2, [pc, #160]	; (8002498 <LL_TIM_Init+0x114>)
 80023f6:	4293      	cmp	r3, r2
 80023f8:	d00f      	beq.n	800241a <LL_TIM_Init+0x96>
 80023fa:	687b      	ldr	r3, [r7, #4]
 80023fc:	4a27      	ldr	r2, [pc, #156]	; (800249c <LL_TIM_Init+0x118>)
 80023fe:	4293      	cmp	r3, r2
 8002400:	d00b      	beq.n	800241a <LL_TIM_Init+0x96>
 8002402:	687b      	ldr	r3, [r7, #4]
 8002404:	4a26      	ldr	r2, [pc, #152]	; (80024a0 <LL_TIM_Init+0x11c>)
 8002406:	4293      	cmp	r3, r2
 8002408:	d007      	beq.n	800241a <LL_TIM_Init+0x96>
 800240a:	687b      	ldr	r3, [r7, #4]
 800240c:	4a25      	ldr	r2, [pc, #148]	; (80024a4 <LL_TIM_Init+0x120>)
 800240e:	4293      	cmp	r3, r2
 8002410:	d003      	beq.n	800241a <LL_TIM_Init+0x96>
 8002412:	687b      	ldr	r3, [r7, #4]
 8002414:	4a24      	ldr	r2, [pc, #144]	; (80024a8 <LL_TIM_Init+0x124>)
 8002416:	4293      	cmp	r3, r2
 8002418:	d106      	bne.n	8002428 <LL_TIM_Init+0xa4>
  {
    /* Set the clock division */
    MODIFY_REG(tmpcr1, TIM_CR1_CKD, TIM_InitStruct->ClockDivision);
 800241a:	68fb      	ldr	r3, [r7, #12]
 800241c:	f423 7240 	bic.w	r2, r3, #768	; 0x300
 8002420:	683b      	ldr	r3, [r7, #0]
 8002422:	68db      	ldr	r3, [r3, #12]
 8002424:	4313      	orrs	r3, r2
 8002426:	60fb      	str	r3, [r7, #12]
  }

  /* Write to TIMx CR1 */
  LL_TIM_WriteReg(TIMx, CR1, tmpcr1);
 8002428:	687b      	ldr	r3, [r7, #4]
 800242a:	68fa      	ldr	r2, [r7, #12]
 800242c:	601a      	str	r2, [r3, #0]

  /* Set the Autoreload value */
  LL_TIM_SetAutoReload(TIMx, TIM_InitStruct->Autoreload);
 800242e:	683b      	ldr	r3, [r7, #0]
 8002430:	689b      	ldr	r3, [r3, #8]
 8002432:	4619      	mov	r1, r3
 8002434:	6878      	ldr	r0, [r7, #4]
 8002436:	f7ff ff79 	bl	800232c <LL_TIM_SetAutoReload>

  /* Set the Prescaler value */
  LL_TIM_SetPrescaler(TIMx, TIM_InitStruct->Prescaler);
 800243a:	683b      	ldr	r3, [r7, #0]
 800243c:	881b      	ldrh	r3, [r3, #0]
 800243e:	4619      	mov	r1, r3
 8002440:	6878      	ldr	r0, [r7, #4]
 8002442:	f7ff ff65 	bl	8002310 <LL_TIM_SetPrescaler>

  if (IS_TIM_REPETITION_COUNTER_INSTANCE(TIMx))
 8002446:	687b      	ldr	r3, [r7, #4]
 8002448:	4a10      	ldr	r2, [pc, #64]	; (800248c <LL_TIM_Init+0x108>)
 800244a:	4293      	cmp	r3, r2
 800244c:	d00f      	beq.n	800246e <LL_TIM_Init+0xea>
 800244e:	687b      	ldr	r3, [r7, #4]
 8002450:	4a12      	ldr	r2, [pc, #72]	; (800249c <LL_TIM_Init+0x118>)
 8002452:	4293      	cmp	r3, r2
 8002454:	d00b      	beq.n	800246e <LL_TIM_Init+0xea>
 8002456:	687b      	ldr	r3, [r7, #4]
 8002458:	4a11      	ldr	r2, [pc, #68]	; (80024a0 <LL_TIM_Init+0x11c>)
 800245a:	4293      	cmp	r3, r2
 800245c:	d007      	beq.n	800246e <LL_TIM_Init+0xea>
 800245e:	687b      	ldr	r3, [r7, #4]
 8002460:	4a10      	ldr	r2, [pc, #64]	; (80024a4 <LL_TIM_Init+0x120>)
 8002462:	4293      	cmp	r3, r2
 8002464:	d003      	beq.n	800246e <LL_TIM_Init+0xea>
 8002466:	687b      	ldr	r3, [r7, #4]
 8002468:	4a0f      	ldr	r2, [pc, #60]	; (80024a8 <LL_TIM_Init+0x124>)
 800246a:	4293      	cmp	r3, r2
 800246c:	d105      	bne.n	800247a <LL_TIM_Init+0xf6>
  {
    /* Set the Repetition Counter value */
    LL_TIM_SetRepetitionCounter(TIMx, TIM_InitStruct->RepetitionCounter);
 800246e:	683b      	ldr	r3, [r7, #0]
 8002470:	691b      	ldr	r3, [r3, #16]
 8002472:	4619      	mov	r1, r3
 8002474:	6878      	ldr	r0, [r7, #4]
 8002476:	f7ff ff67 	bl	8002348 <LL_TIM_SetRepetitionCounter>
  }

  /* Generate an update event to reload the Prescaler
     and the repetition counter value (if applicable) immediately */
  LL_TIM_GenerateEvent_UPDATE(TIMx);
 800247a:	6878      	ldr	r0, [r7, #4]
 800247c:	f7ff ff72 	bl	8002364 <LL_TIM_GenerateEvent_UPDATE>

  return SUCCESS;
 8002480:	2300      	movs	r3, #0
}
 8002482:	4618      	mov	r0, r3
 8002484:	3710      	adds	r7, #16
 8002486:	46bd      	mov	sp, r7
 8002488:	bd80      	pop	{r7, pc}
 800248a:	bf00      	nop
 800248c:	40012c00 	.word	0x40012c00
 8002490:	40000400 	.word	0x40000400
 8002494:	40000800 	.word	0x40000800
 8002498:	40000c00 	.word	0x40000c00
 800249c:	40013400 	.word	0x40013400
 80024a0:	40014000 	.word	0x40014000
 80024a4:	40014400 	.word	0x40014400
 80024a8:	40014800 	.word	0x40014800

080024ac <LL_InitTick>:
  *         configuration by calling this function, for a delay use rather osDelay RTOS service.
  * @param  Ticks Number of ticks
  * @retval None
  */
__STATIC_INLINE void LL_InitTick(uint32_t HCLKFrequency, uint32_t Ticks)
{
 80024ac:	b480      	push	{r7}
 80024ae:	b083      	sub	sp, #12
 80024b0:	af00      	add	r7, sp, #0
 80024b2:	6078      	str	r0, [r7, #4]
 80024b4:	6039      	str	r1, [r7, #0]
  /* Configure the SysTick to have interrupt in 1ms time base */
  SysTick->LOAD  = (uint32_t)((HCLKFrequency / Ticks) - 1UL);  /* set reload register */
 80024b6:	687a      	ldr	r2, [r7, #4]
 80024b8:	683b      	ldr	r3, [r7, #0]
 80024ba:	fbb2 f3f3 	udiv	r3, r2, r3
 80024be:	4a07      	ldr	r2, [pc, #28]	; (80024dc <LL_InitTick+0x30>)
 80024c0:	3b01      	subs	r3, #1
 80024c2:	6053      	str	r3, [r2, #4]
  SysTick->VAL   = 0UL;                                       /* Load the SysTick Counter Value */
 80024c4:	4b05      	ldr	r3, [pc, #20]	; (80024dc <LL_InitTick+0x30>)
 80024c6:	2200      	movs	r2, #0
 80024c8:	609a      	str	r2, [r3, #8]
  SysTick->CTRL  = SysTick_CTRL_CLKSOURCE_Msk |
 80024ca:	4b04      	ldr	r3, [pc, #16]	; (80024dc <LL_InitTick+0x30>)
 80024cc:	2205      	movs	r2, #5
 80024ce:	601a      	str	r2, [r3, #0]
                   SysTick_CTRL_ENABLE_Msk;                   /* Enable the Systick Timer */
}
 80024d0:	bf00      	nop
 80024d2:	370c      	adds	r7, #12
 80024d4:	46bd      	mov	sp, r7
 80024d6:	f85d 7b04 	ldr.w	r7, [sp], #4
 80024da:	4770      	bx	lr
 80024dc:	e000e010 	.word	0xe000e010

080024e0 <LL_Init1msTick>:
  * @param  HCLKFrequency HCLK frequency in Hz
  * @note   HCLK frequency can be calculated thanks to RCC helper macro or function @ref LL_RCC_GetSystemClocksFreq
  * @retval None
  */
void LL_Init1msTick(uint32_t HCLKFrequency)
{
 80024e0:	b580      	push	{r7, lr}
 80024e2:	b082      	sub	sp, #8
 80024e4:	af00      	add	r7, sp, #0
 80024e6:	6078      	str	r0, [r7, #4]
  /* Use frequency provided in argument */
  LL_InitTick(HCLKFrequency, 1000U);
 80024e8:	f44f 717a 	mov.w	r1, #1000	; 0x3e8
 80024ec:	6878      	ldr	r0, [r7, #4]
 80024ee:	f7ff ffdd 	bl	80024ac <LL_InitTick>
}
 80024f2:	bf00      	nop
 80024f4:	3708      	adds	r7, #8
 80024f6:	46bd      	mov	sp, r7
 80024f8:	bd80      	pop	{r7, pc}
	...

080024fc <LL_SetSystemCoreClock>:
  * @note   Variable can be calculated also through SystemCoreClockUpdate function.
  * @param  HCLKFrequency HCLK frequency in Hz (can be calculated thanks to RCC helper macro)
  * @retval None
  */
void LL_SetSystemCoreClock(uint32_t HCLKFrequency)
{
 80024fc:	b480      	push	{r7}
 80024fe:	b083      	sub	sp, #12
 8002500:	af00      	add	r7, sp, #0
 8002502:	6078      	str	r0, [r7, #4]
  /* HCLK clock frequency */
  SystemCoreClock = HCLKFrequency;
 8002504:	4a04      	ldr	r2, [pc, #16]	; (8002518 <LL_SetSystemCoreClock+0x1c>)
 8002506:	687b      	ldr	r3, [r7, #4]
 8002508:	6013      	str	r3, [r2, #0]
}
 800250a:	bf00      	nop
 800250c:	370c      	adds	r7, #12
 800250e:	46bd      	mov	sp, r7
 8002510:	f85d 7b04 	ldr.w	r7, [sp], #4
 8002514:	4770      	bx	lr
 8002516:	bf00      	nop
 8002518:	20000000 	.word	0x20000000

0800251c <__libc_init_array>:
 800251c:	b570      	push	{r4, r5, r6, lr}
 800251e:	4d0d      	ldr	r5, [pc, #52]	; (8002554 <__libc_init_array+0x38>)
 8002520:	4c0d      	ldr	r4, [pc, #52]	; (8002558 <__libc_init_array+0x3c>)
 8002522:	1b64      	subs	r4, r4, r5
 8002524:	10a4      	asrs	r4, r4, #2
 8002526:	2600      	movs	r6, #0
 8002528:	42a6      	cmp	r6, r4
 800252a:	d109      	bne.n	8002540 <__libc_init_array+0x24>
 800252c:	4d0b      	ldr	r5, [pc, #44]	; (800255c <__libc_init_array+0x40>)
 800252e:	4c0c      	ldr	r4, [pc, #48]	; (8002560 <__libc_init_array+0x44>)
 8002530:	f000 f820 	bl	8002574 <_init>
 8002534:	1b64      	subs	r4, r4, r5
 8002536:	10a4      	asrs	r4, r4, #2
 8002538:	2600      	movs	r6, #0
 800253a:	42a6      	cmp	r6, r4
 800253c:	d105      	bne.n	800254a <__libc_init_array+0x2e>
 800253e:	bd70      	pop	{r4, r5, r6, pc}
 8002540:	f855 3b04 	ldr.w	r3, [r5], #4
 8002544:	4798      	blx	r3
 8002546:	3601      	adds	r6, #1
 8002548:	e7ee      	b.n	8002528 <__libc_init_array+0xc>
 800254a:	f855 3b04 	ldr.w	r3, [r5], #4
 800254e:	4798      	blx	r3
 8002550:	3601      	adds	r6, #1
 8002552:	e7f2      	b.n	800253a <__libc_init_array+0x1e>
 8002554:	080025a4 	.word	0x080025a4
 8002558:	080025a4 	.word	0x080025a4
 800255c:	080025a4 	.word	0x080025a4
 8002560:	080025a8 	.word	0x080025a8

08002564 <memset>:
 8002564:	4402      	add	r2, r0
 8002566:	4603      	mov	r3, r0
 8002568:	4293      	cmp	r3, r2
 800256a:	d100      	bne.n	800256e <memset+0xa>
 800256c:	4770      	bx	lr
 800256e:	f803 1b01 	strb.w	r1, [r3], #1
 8002572:	e7f9      	b.n	8002568 <memset+0x4>

08002574 <_init>:
 8002574:	b5f8      	push	{r3, r4, r5, r6, r7, lr}
 8002576:	bf00      	nop
 8002578:	bcf8      	pop	{r3, r4, r5, r6, r7}
 800257a:	bc08      	pop	{r3}
 800257c:	469e      	mov	lr, r3
 800257e:	4770      	bx	lr

08002580 <_fini>:
 8002580:	b5f8      	push	{r3, r4, r5, r6, r7, lr}
 8002582:	bf00      	nop
 8002584:	bcf8      	pop	{r3, r4, r5, r6, r7}
 8002586:	bc08      	pop	{r3}
 8002588:	469e      	mov	lr, r3
 800258a:	4770      	bx	lr
